
build/my_model_curr_exp.elf:     file format elf32-littlearm
build/my_model_curr_exp.elf
architecture: armv5te, flags 0x00000112:
EXEC_P, HAS_SYMS, D_PAGED
start address 0x00000000

Program Header:
    LOAD off    0x00010000 vaddr 0x00000000 paddr 0x00000000 align 2**16
         filesz 0x00006d5d memsz 0x00006d5d flags r-x
    LOAD off    0x00020000 vaddr 0x00400000 paddr 0x00400000 align 2**16
         filesz 0x0000000c memsz 0x00004990 flags rw-
private flags = 5000200: [Version5 EABI] [soft-float ABI]

Sections:
Idx Name          Size      VMA       LMA       File off  Algn
  0 RO_DATA       00006d5d  00000000  00000000  00010000  2**3
                  CONTENTS, ALLOC, LOAD, READONLY, CODE
  1 RW_DATA       0000000c  00400000  00400000  00020000  2**2
                  CONTENTS, ALLOC, LOAD, DATA
  2 ZI_DATA       00004984  0040000c  0040000c  0002000c  2**2
                  ALLOC
  3 .debug_info   00029556  00000000  00000000  0002000c  2**0
                  CONTENTS, READONLY, DEBUGGING
  4 .debug_abbrev 00005270  00000000  00000000  00049562  2**0
                  CONTENTS, READONLY, DEBUGGING
  5 .debug_loc    00008449  00000000  00000000  0004e7d2  2**0
                  CONTENTS, READONLY, DEBUGGING
  6 .debug_aranges 00000958  00000000  00000000  00056c1b  2**0
                  CONTENTS, READONLY, DEBUGGING
  7 .debug_ranges 00001540  00000000  00000000  00057573  2**0
                  CONTENTS, READONLY, DEBUGGING
  8 .debug_line   00004e07  00000000  00000000  00058ab3  2**0
                  CONTENTS, READONLY, DEBUGGING
  9 .debug_str    00004dc8  00000000  00000000  0005d8ba  2**0
                  CONTENTS, READONLY, DEBUGGING
 10 .comment      0000007f  00000000  00000000  00062682  2**0
                  CONTENTS, READONLY
 11 .ARM.attributes 00000029  00000000  00000000  00062701  2**0
                  CONTENTS, READONLY
 12 .debug_frame  00001d98  00000000  00000000  0006272c  2**2
                  CONTENTS, READONLY, DEBUGGING
SYMBOL TABLE:
00000000 l    d  RO_DATA	00000000 RO_DATA
00400000 l    d  RW_DATA	00000000 RW_DATA
0040000c l    d  ZI_DATA	00000000 ZI_DATA
00000000 l    d  .debug_info	00000000 .debug_info
00000000 l    d  .debug_abbrev	00000000 .debug_abbrev
00000000 l    d  .debug_loc	00000000 .debug_loc
00000000 l    d  .debug_aranges	00000000 .debug_aranges
00000000 l    d  .debug_ranges	00000000 .debug_ranges
00000000 l    d  .debug_line	00000000 .debug_line
00000000 l    d  .debug_str	00000000 .debug_str
00000000 l    d  .comment	00000000 .comment
00000000 l    d  .ARM.attributes	00000000 .ARM.attributes
00000000 l    d  .debug_frame	00000000 .debug_frame
00000000 l    df *ABS*	00000000 sark.o
00000001 l       *ABS*	00000000 GNU
00000000 l       *ABS*	00000000 NULL
80000000 l       *ABS*	00000000 BIT_31
00000001 l       *ABS*	00000000 BUF_WRITE
00000012 l       *ABS*	00000000 NUM_CPUS
00000006 l       *ABS*	00000000 NUM_LINKS
00000000 l       *ABS*	00000000 ITCM_BASE
00008000 l       *ABS*	00000000 ITCM_SIZE
00008000 l       *ABS*	00000000 ITCM_TOP
00400000 l       *ABS*	00000000 DTCM_BASE
00010000 l       *ABS*	00000000 DTCM_SIZE
00410000 l       *ABS*	00000000 DTCM_TOP
70000000 l       *ABS*	00000000 SDRAM_BASE_UNBUF
60000000 l       *ABS*	00000000 SDRAM_BASE_BUF
60000000 l       *ABS*	00000000 SDRAM_BASE
08000000 l       *ABS*	00000000 SDRAM_SIZE
68000000 l       *ABS*	00000000 SDRAM_TOP
f5000000 l       *ABS*	00000000 SYSRAM_BASE_UNBUF
e5000000 l       *ABS*	00000000 SYSRAM_BASE_BUF
e5000000 l       *ABS*	00000000 SYSRAM_BASE
00008000 l       *ABS*	00000000 SYSRAM_SIZE
e5008000 l       *ABS*	00000000 SYSRAM_TOP
f6000000 l       *ABS*	00000000 ROM_BASE
00008000 l       *ABS*	00000000 ROM_SIZE
f6008000 l       *ABS*	00000000 ROM_TOP
10000000 l       *ABS*	00000000 CC_BASE_UNBUF
20000000 l       *ABS*	00000000 CC_BASE_BUF
20000000 l       *ABS*	00000000 CC_BASE
00000000 l       *ABS*	00000000 CC_TCR
00000004 l       *ABS*	00000000 CC_TXDATA
00000008 l       *ABS*	00000000 CC_TXKEY
0000000c l       *ABS*	00000000 CC_RSR
00000010 l       *ABS*	00000000 CC_RXDATA
00000014 l       *ABS*	00000000 CC_RXKEY
00000018 l       *ABS*	00000000 CC_SAR
0000001c l       *ABS*	00000000 CC_TEST
11000000 l       *ABS*	00000000 TIMER_BASE_UNBUF
21000000 l       *ABS*	00000000 TIMER_BASE_BUF
21000000 l       *ABS*	00000000 TIMER_BASE
00000020 l       *ABS*	00000000 TIMER_OFFSET
21000000 l       *ABS*	00000000 TIMER1_BASE
21000020 l       *ABS*	00000000 TIMER2_BASE
00000000 l       *ABS*	00000000 TC_LOAD
00000004 l       *ABS*	00000000 TC_COUNT
00000008 l       *ABS*	00000000 TC_CONTROL
0000000c l       *ABS*	00000000 TC_INT_CLR
00000010 l       *ABS*	00000000 TC_RAW_INT
00000014 l       *ABS*	00000000 TC_MASK_INT
00000018 l       *ABS*	00000000 TC_BG_LOAD
00000000 l       *ABS*	00000000 T1_LOAD
00000004 l       *ABS*	00000000 T1_COUNT
00000008 l       *ABS*	00000000 T1_CONTROL
0000000c l       *ABS*	00000000 T1_INT_CLR
00000010 l       *ABS*	00000000 T1_RAW_INT
00000014 l       *ABS*	00000000 T1_MASK_INT
00000018 l       *ABS*	00000000 T1_BG_LOAD
00000020 l       *ABS*	00000000 T2_LOAD
00000024 l       *ABS*	00000000 T2_COUNT
00000028 l       *ABS*	00000000 T2_CONTROL
0000002c l       *ABS*	00000000 T2_INT_CLR
00000030 l       *ABS*	00000000 T2_RAW_INT
00000034 l       *ABS*	00000000 T2_MASK_INT
00000038 l       *ABS*	00000000 T2_BG_LOAD
1f000000 l       *ABS*	00000000 VIC_BASE_UNBUF
2f000000 l       *ABS*	00000000 VIC_BASE_BUF
2f000000 l       *ABS*	00000000 VIC_BASE
00000000 l       *ABS*	00000000 VIC_IRQST
00000004 l       *ABS*	00000000 VIC_FIQST
00000008 l       *ABS*	00000000 VIC_RAW
0000000c l       *ABS*	00000000 VIC_SELECT
00000010 l       *ABS*	00000000 VIC_ENABLE
00000014 l       *ABS*	00000000 VIC_DISABLE
00000018 l       *ABS*	00000000 VIC_SOFT_SET
0000001c l       *ABS*	00000000 VIC_SOFT_CLR
00000020 l       *ABS*	00000000 VIC_PROTECT
00000030 l       *ABS*	00000000 VIC_VADDR
00000034 l       *ABS*	00000000 VIC_DEFADDR
00000100 l       *ABS*	00000000 VIC_ADDR
00000100 l       *ABS*	00000000 VIC_ADDR0
00000104 l       *ABS*	00000000 VIC_ADDR1
00000108 l       *ABS*	00000000 VIC_ADDR2
0000010c l       *ABS*	00000000 VIC_ADDR3
00000110 l       *ABS*	00000000 VIC_ADDR4
00000114 l       *ABS*	00000000 VIC_ADDR5
00000118 l       *ABS*	00000000 VIC_ADDR6
0000011c l       *ABS*	00000000 VIC_ADDR7
00000120 l       *ABS*	00000000 VIC_ADDR8
00000124 l       *ABS*	00000000 VIC_ADDR9
00000128 l       *ABS*	00000000 VIC_ADDR10
0000012c l       *ABS*	00000000 VIC_ADDR11
00000130 l       *ABS*	00000000 VIC_ADDR12
00000134 l       *ABS*	00000000 VIC_ADDR13
00000138 l       *ABS*	00000000 VIC_ADDR14
0000013c l       *ABS*	00000000 VIC_ADDR15
00000200 l       *ABS*	00000000 VIC_CNTL
00000200 l       *ABS*	00000000 VIC_CNTL0
00000204 l       *ABS*	00000000 VIC_CNTL1
00000208 l       *ABS*	00000000 VIC_CNTL2
0000020c l       *ABS*	00000000 VIC_CNTL3
00000210 l       *ABS*	00000000 VIC_CNTL4
00000214 l       *ABS*	00000000 VIC_CNTL5
00000218 l       *ABS*	00000000 VIC_CNTL6
0000021c l       *ABS*	00000000 VIC_CNTL7
00000220 l       *ABS*	00000000 VIC_CNTL8
00000224 l       *ABS*	00000000 VIC_CNTL9
00000228 l       *ABS*	00000000 VIC_CNTL10
0000022c l       *ABS*	00000000 VIC_CNTL11
00000230 l       *ABS*	00000000 VIC_CNTL12
00000234 l       *ABS*	00000000 VIC_CNTL13
00000238 l       *ABS*	00000000 VIC_CNTL14
0000023c l       *ABS*	00000000 VIC_CNTL15
00000000 l       *ABS*	00000000 WDOG_INT
00000001 l       *ABS*	00000000 SOFTWARE_INT
00000002 l       *ABS*	00000000 COMM_RX_INT
00000003 l       *ABS*	00000000 COMM_TX_INT
00000004 l       *ABS*	00000000 TIMER1_INT
00000005 l       *ABS*	00000000 TIMER2_INT
00000006 l       *ABS*	00000000 CC_RDY_INT
00000007 l       *ABS*	00000000 CC_RPE_INT
00000008 l       *ABS*	00000000 CC_RFE_INT
00000009 l       *ABS*	00000000 CC_TFL_INT
0000000a l       *ABS*	00000000 CC_TOV_INT
0000000b l       *ABS*	00000000 CC_TMT_INT
0000000c l       *ABS*	00000000 DMA_DONE_INT
0000000d l       *ABS*	00000000 DMA_ERR_INT
0000000e l       *ABS*	00000000 DMA_TO_INT
0000000f l       *ABS*	00000000 RTR_DIAG_INT
00000010 l       *ABS*	00000000 RTR_DUMP_INT
00000011 l       *ABS*	00000000 RTR_ERR_INT
00000012 l       *ABS*	00000000 CPU_INT
00000013 l       *ABS*	00000000 ETH_TX_INT
00000014 l       *ABS*	00000000 ETH_RX_INT
00000015 l       *ABS*	00000000 ETH_PHY_INT
00000016 l       *ABS*	00000000 SLOW_CLK_INT
00000017 l       *ABS*	00000000 CC_TNF_INT
00000018 l       *ABS*	00000000 CC_MC_INT
00000019 l       *ABS*	00000000 CC_P2P_INT
0000001a l       *ABS*	00000000 CC_NN_INT
0000001b l       *ABS*	00000000 CC_FR_INT
0000001c l       *ABS*	00000000 INT0_INT
0000001d l       *ABS*	00000000 INT1_INT
0000001e l       *ABS*	00000000 GPIO8_INT
0000001f l       *ABS*	00000000 GPIO9_INT
30000000 l       *ABS*	00000000 DMA_BASE_UNBUF
40000000 l       *ABS*	00000000 DMA_BASE_BUF
40000000 l       *ABS*	00000000 DMA_BASE
00000004 l       *ABS*	00000000 DMA_ADRS
00000008 l       *ABS*	00000000 DMA_ADRT
0000000c l       *ABS*	00000000 DMA_DESC
00000010 l       *ABS*	00000000 DMA_CTRL
00000014 l       *ABS*	00000000 DMA_STAT
00000018 l       *ABS*	00000000 DMA_GCTL
0000001c l       *ABS*	00000000 DMA_CRCC
00000020 l       *ABS*	00000000 DMA_CRCR
00000024 l       *ABS*	00000000 DMA_TMTV
00000028 l       *ABS*	00000000 DMA_SCTL
00000040 l       *ABS*	00000000 DMA_STAT0
00000044 l       *ABS*	00000000 DMA_STAT1
00000048 l       *ABS*	00000000 DMA_STAT2
0000004c l       *ABS*	00000000 DMA_STAT3
00000050 l       *ABS*	00000000 DMA_STAT4
00000054 l       *ABS*	00000000 DMA_STAT5
00000058 l       *ABS*	00000000 DMA_STAT6
0000005c l       *ABS*	00000000 DMA_STAT7
00000104 l       *ABS*	00000000 DMA_AD2S
00000108 l       *ABS*	00000000 DMA_AD2T
0000010c l       *ABS*	00000000 DMA_DES2
00000180 l       *ABS*	00000000 DMA_CRCT
f0000000 l       *ABS*	00000000 PL340_BASE_UNBUF
e0000000 l       *ABS*	00000000 PL340_BASE_BUF
e0000000 l       *ABS*	00000000 PL340_BASE
00000000 l       *ABS*	00000000 MC_STAT
00000004 l       *ABS*	00000000 MC_CMD
00000008 l       *ABS*	00000000 MC_DIRC
0000000c l       *ABS*	00000000 MC_MCFG
00000010 l       *ABS*	00000000 MC_REFP
00000014 l       *ABS*	00000000 MC_CASL
00000018 l       *ABS*	00000000 MC_DQSS
0000001c l       *ABS*	00000000 MC_MRD
00000020 l       *ABS*	00000000 MC_RAS
00000024 l       *ABS*	00000000 MC_RC
00000028 l       *ABS*	00000000 MC_RCD
0000002c l       *ABS*	00000000 MC_RFC
00000030 l       *ABS*	00000000 MC_RP
00000034 l       *ABS*	00000000 MC_RRD
00000038 l       *ABS*	00000000 MC_WR
0000003c l       *ABS*	00000000 MC_WTR
00000040 l       *ABS*	00000000 MC_XP
00000044 l       *ABS*	00000000 MC_XSR
00000048 l       *ABS*	00000000 MC_ESR
0000004c l       *ABS*	00000000 MC_MCFG2
00000050 l       *ABS*	00000000 MC_MCFG3
00000100 l       *ABS*	00000000 MC_QOS0
00000104 l       *ABS*	00000000 MC_QOS1
00000108 l       *ABS*	00000000 MC_QOS2
0000010c l       *ABS*	00000000 MC_QOS3
00000110 l       *ABS*	00000000 MC_QOS4
00000114 l       *ABS*	00000000 MC_QOS5
00000118 l       *ABS*	00000000 MC_QOS6
0000011c l       *ABS*	00000000 MC_QOS7
00000120 l       *ABS*	00000000 MC_QOS8
00000124 l       *ABS*	00000000 MC_QOS9
00000128 l       *ABS*	00000000 MC_QOS10
0000012c l       *ABS*	00000000 MC_QOS11
00000130 l       *ABS*	00000000 MC_QOS12
00000134 l       *ABS*	00000000 MC_QOS13
00000138 l       *ABS*	00000000 MC_QOS14
0000013c l       *ABS*	00000000 MC_QOS15
00000200 l       *ABS*	00000000 MC_CCFG0
00000204 l       *ABS*	00000000 MC_CCFG1
00000208 l       *ABS*	00000000 MC_CCFG2
0000020c l       *ABS*	00000000 MC_CCFG3
00000300 l       *ABS*	00000000 DLL_STATUS
00000304 l       *ABS*	00000000 DLL_CONFIG0
00000308 l       *ABS*	00000000 DLL_CONFIG1
f1000000 l       *ABS*	00000000 RTR_BASE_UNBUF
e1000000 l       *ABS*	00000000 RTR_BASE_BUF
e1000000 l       *ABS*	00000000 RTR_BASE
00000000 l       *ABS*	00000000 RTR_CONTROL
00000004 l       *ABS*	00000000 RTR_STATUS
00000008 l       *ABS*	00000000 RTR_EHDR
0000000c l       *ABS*	00000000 RTR_EKEY
00000010 l       *ABS*	00000000 RTR_EDAT
00000014 l       *ABS*	00000000 RTR_ESTAT
00000018 l       *ABS*	00000000 RTR_DHDR
0000001c l       *ABS*	00000000 RTR_DKEY
00000020 l       *ABS*	00000000 RTR_DDAT
00000024 l       *ABS*	00000000 RTR_DLINK
00000028 l       *ABS*	00000000 RTR_DSTAT
0000002c l       *ABS*	00000000 RTR_DGEN
00000084 l       *ABS*	00000000 RTR_FR
00000200 l       *ABS*	00000000 RTR_DGF0
00000204 l       *ABS*	00000000 RTR_DGF1
00000208 l       *ABS*	00000000 RTR_DGF2
0000020c l       *ABS*	00000000 RTR_DGF3
00000210 l       *ABS*	00000000 RTR_DGF4
00000214 l       *ABS*	00000000 RTR_DGF5
00000218 l       *ABS*	00000000 RTR_DGF6
0000021c l       *ABS*	00000000 RTR_DGF7
00000220 l       *ABS*	00000000 RTR_DGF8
00000224 l       *ABS*	00000000 RTR_DGF9
00000228 l       *ABS*	00000000 RTR_DGF10
0000022c l       *ABS*	00000000 RTR_DGF11
00000230 l       *ABS*	00000000 RTR_DGF12
00000234 l       *ABS*	00000000 RTR_DGF13
00000238 l       *ABS*	00000000 RTR_DGF14
0000023c l       *ABS*	00000000 RTR_DGF15
00000300 l       *ABS*	00000000 RTR_DGC0
00000304 l       *ABS*	00000000 RTR_DGC1
00000308 l       *ABS*	00000000 RTR_DGC2
0000030c l       *ABS*	00000000 RTR_DGC3
00000310 l       *ABS*	00000000 RTR_DGC4
00000314 l       *ABS*	00000000 RTR_DGC5
00000318 l       *ABS*	00000000 RTR_DGC6
0000031c l       *ABS*	00000000 RTR_DGC7
00000320 l       *ABS*	00000000 RTR_DGC8
00000324 l       *ABS*	00000000 RTR_DGC9
00000328 l       *ABS*	00000000 RTR_DGC10
0000032c l       *ABS*	00000000 RTR_DGC11
00000330 l       *ABS*	00000000 RTR_DGC12
00000334 l       *ABS*	00000000 RTR_DGC13
00000338 l       *ABS*	00000000 RTR_DGC14
0000033c l       *ABS*	00000000 RTR_DGC15
00000f00 l       *ABS*	00000000 RTR_TST1
00000f04 l       *ABS*	00000000 RTR_TST2
00002000 l       *ABS*	00000000 P2P_TABLE_SIZE
00000400 l       *ABS*	00000000 MC_TABLE_SIZE
00000018 l       *ABS*	00000000 MC_RAM_WIDTH
00ffffff l       *ABS*	00000000 MC_RAM_MASK
00000008 l       *ABS*	00000000 P2P_EPW
00000003 l       *ABS*	00000000 P2P_LOG_EPW
00000007 l       *ABS*	00000000 P2P_EMASK
00000003 l       *ABS*	00000000 P2P_BPE
00000007 l       *ABS*	00000000 P2P_BMASK
00db6db6 l       *ABS*	00000000 P2P_INIT
e1004000 l       *ABS*	00000000 RTR_MCRAM_BASE
e1005000 l       *ABS*	00000000 RTR_MCRAM_TOP
e1008000 l       *ABS*	00000000 RTR_MCKEY_BASE
e1009000 l       *ABS*	00000000 RTR_MCKEY_TOP
e100c000 l       *ABS*	00000000 RTR_MCMASK_BASE
e100d000 l       *ABS*	00000000 RTR_MCMASK_TOP
e1010000 l       *ABS*	00000000 RTR_P2P_BASE
e1018000 l       *ABS*	00000000 RTR_P2P_TOP
00000020 l       *ABS*	00000000 MC_CAM_WIDTH
f2000000 l       *ABS*	00000000 SYSCTL_BASE_UNBUF
e2000000 l       *ABS*	00000000 SYSCTL_BASE_BUF
e2000000 l       *ABS*	00000000 SYSCTL_BASE
5ec00000 l       *ABS*	00000000 SC_CODE
59111012 l       *ABS*	00000000 CHIP_ID_CODE
00000000 l       *ABS*	00000000 SC_CHIP_ID
00000004 l       *ABS*	00000000 SC_CPU_DIS
00000008 l       *ABS*	00000000 SC_SET_IRQ
0000000c l       *ABS*	00000000 SC_CLR_IRQ
00000010 l       *ABS*	00000000 SC_SET_OK
00000010 l       *ABS*	00000000 SC_CPU_OK
00000014 l       *ABS*	00000000 SC_CLR_OK
00000018 l       *ABS*	00000000 SC_SOFT_RST_L
0000001c l       *ABS*	00000000 SC_HARD_RST_L
00000020 l       *ABS*	00000000 SC_SUBS_RST_L
00000024 l       *ABS*	00000000 SC_SOFT_RST_P
00000028 l       *ABS*	00000000 SC_HARD_RST_P
0000002c l       *ABS*	00000000 SC_SUBS_RST_P
00000030 l       *ABS*	00000000 SC_RST_CODE
00000034 l       *ABS*	00000000 SC_MON_ID
00000038 l       *ABS*	00000000 SC_MISC_CTRL
0000003c l       *ABS*	00000000 GPIO_RES
00000040 l       *ABS*	00000000 GPIO_PORT
00000044 l       *ABS*	00000000 GPIO_DIR
00000048 l       *ABS*	00000000 GPIO_SET
0000004c l       *ABS*	00000000 GPIO_CLR
00000048 l       *ABS*	00000000 GPIO_READ
00000050 l       *ABS*	00000000 SC_PLL1
00000054 l       *ABS*	00000000 SC_PLL2
00000058 l       *ABS*	00000000 SC_FLAG
00000058 l       *ABS*	00000000 SC_SETFLAG
0000005c l       *ABS*	00000000 SC_CLRFLAG
00000060 l       *ABS*	00000000 SC_CLKMUX
00000064 l       *ABS*	00000000 SC_SLEEP
00000068 l       *ABS*	00000000 SC_TS0
0000006c l       *ABS*	00000000 SC_TS1
00000070 l       *ABS*	00000000 SC_TS2
00000080 l       *ABS*	00000000 SC_ARB0
00000100 l       *ABS*	00000000 SC_TAS0
00000180 l       *ABS*	00000000 SC_TAC0
00000200 l       *ABS*	00000000 SC_LINK_DIS
00000000 l       *ABS*	00000000 RST_POR
00000001 l       *ABS*	00000000 RST_WDT
00000002 l       *ABS*	00000000 RST_USER
00000003 l       *ABS*	00000000 RST_SW
00000004 l       *ABS*	00000000 RST_WDI
f3000000 l       *ABS*	00000000 WDOG_BASE_UNBUF
e3000000 l       *ABS*	00000000 WDOG_BASE_BUF
e3000000 l       *ABS*	00000000 WDOG_BASE
00000000 l       *ABS*	00000000 WD_LOAD
00000004 l       *ABS*	00000000 WD_COUNT
00000008 l       *ABS*	00000000 WD_CTRL
0000000c l       *ABS*	00000000 WD_INTCLR
00000010 l       *ABS*	00000000 WD_RAWINT
00000014 l       *ABS*	00000000 WD_MSKINT
00000c00 l       *ABS*	00000000 WD_LOCK
1acce551 l       *ABS*	00000000 WD_CODE
00000001 l       *ABS*	00000000 WD_INT_B
00000002 l       *ABS*	00000000 WD_RST_B
f4000000 l       *ABS*	00000000 ETH_BASE_UNBUF
e4000000 l       *ABS*	00000000 ETH_BASE_BUF
e4000000 l       *ABS*	00000000 ETH_BASE
e4000000 l       *ABS*	00000000 ETH_TX_BASE
00000600 l       *ABS*	00000000 ETH_TX_SIZE
e4000600 l       *ABS*	00000000 ETH_TX_TOP
e4004000 l       *ABS*	00000000 ETH_RX_BASE
00000c00 l       *ABS*	00000000 ETH_RX_SIZE
e4004c00 l       *ABS*	00000000 ETH_RX_TOP
e4008000 l       *ABS*	00000000 ETH_RX_DESC_RAM
e400c000 l       *ABS*	00000000 ETH_REGS
00000000 l       *ABS*	00000000 ETH_CONTROL
00000004 l       *ABS*	00000000 ETH_STATUS
00000008 l       *ABS*	00000000 ETH_TX_LEN
0000000c l       *ABS*	00000000 ETH_TX_CMD
00000010 l       *ABS*	00000000 ETH_RX_CMD
00000014 l       *ABS*	00000000 ETH_MAC_LO
00000018 l       *ABS*	00000000 ETH_MAC_HI
0000001c l       *ABS*	00000000 ETH_PHY_CTRL
00000020 l       *ABS*	00000000 ETH_INT_CLR
00000024 l       *ABS*	00000000 ETH_RX_BUF_RP
0000002c l       *ABS*	00000000 ETH_RX_DESC_RP
00000001 l       *ABS*	00000000 ETH_TX_CLR
00000010 l       *ABS*	00000000 ETH_RX_CLR
00000001 l       *ABS*	00000000 PHY_CTRL_NRST
00000002 l       *ABS*	00000000 PHY_CTRL_DIN
00000004 l       *ABS*	00000000 PHY_CTRL_DOUT
00000008 l       *ABS*	00000000 PHY_CTRL_OE
00000010 l       *ABS*	00000000 PHY_CTRL_CLK
00000000 l       *ABS*	00000000 PKT_MC
00400000 l       *ABS*	00000000 PKT_P2P
00800000 l       *ABS*	00000000 PKT_NN
00a00000 l       *ABS*	00000000 PKT_NND
00c00000 l       *ABS*	00000000 PKT_FR
00020000 l       *ABS*	00000000 PKT_PL
00020000 l       *ABS*	00000000 PKT_MC_PL
00420000 l       *ABS*	00000000 PKT_P2P_PL
00820000 l       *ABS*	00000000 PKT_NN_PL
00c20000 l       *ABS*	00000000 PKT_FR_PL
0000000a l       *ABS*	00000000 CLK_XTAL_MHZ
0007011a l       *ABS*	00000000 PLL_260
0007011e l       *ABS*	00000000 PLL_300
00070121 l       *ABS*	00000000 PLL_330
00070128 l       *ABS*	00000000 PLL_400
00000050 l       *ABS*	00000000 PLL_LOCK_TIME
809488a5 l       *ABS*	00000000 PLL_CLK_SEL
00000020 l       *ABS*	00000000 SERIAL_NCS
00000010 l       *ABS*	00000000 SERIAL_CLK
00000008 l       *ABS*	00000000 SERIAL_SI
00000004 l       *ABS*	00000000 SERIAL_SO
00000038 l       *ABS*	00000000 SERIAL_OE
80000000 l       *ABS*	00000000 SDRAM_TQ
40000000 l       *ABS*	00000000 SDRAM_DPD
20000000 l       *ABS*	00000000 SDRAM_HERE
08000000 l       *ABS*	00000000 JTAG_NTRST
04000000 l       *ABS*	00000000 JTAG_TMS
02000000 l       *ABS*	00000000 JTAG_TDI
01000000 l       *ABS*	00000000 JTAG_TCK
00100000 l       *ABS*	00000000 JTAG_RTCK
00080000 l       *ABS*	00000000 JTAG_TDO
00008000 l       *ABS*	00000000 JTAG_INT
00000001 l       *ABS*	00000000 LED_0
00000010 l       *ABS*	00000000 MODE_USER
00000011 l       *ABS*	00000000 MODE_FIQ
00000012 l       *ABS*	00000000 MODE_IRQ
00000013 l       *ABS*	00000000 MODE_SVC
00000017 l       *ABS*	00000000 MODE_ABT
0000001b l       *ABS*	00000000 MODE_UND
0000001f l       *ABS*	00000000 MODE_SYS
00000020 l       *ABS*	00000000 THUMB_BIT
00000080 l       *ABS*	00000000 IMASK_IRQ
00000040 l       *ABS*	00000000 IMASK_FIQ
000000c0 l       *ABS*	00000000 IMASK_ALL
00000001 l       *ABS*	00000000 SARK_EVENT
00000180 l       *ABS*	00000000 SVC_STACK
00000100 l       *ABS*	00000000 IRQ_STACK
00000100 l       *ABS*	00000000 FIQ_STACK
00000004 l       *ABS*	00000000 NUM_SDP_MSGS
0000000f l       *ABS*	00000000 SARK_SLOT
00000010 l       *ABS*	00000000 INIT_EVENTS
deaddead l       *ABS*	00000000 DEAD_WORD
00000001 l       *ABS*	00000000 APLX_ACOPY
00000002 l       *ABS*	00000000 APLX_RCOPY
00000003 l       *ABS*	00000000 APLX_FILL
00000004 l       *ABS*	00000000 APLX_EXEC
000000ff l       *ABS*	00000000 APLX_END
00000010 l       *ABS*	00000000 APLX_ENTRY_SIZE
00000040 l       *ABS*	00000000 APLX_BUF_SIZE
00007fc0 l       *ABS*	00000000 APLX_BUFFER
000000ff l       *ABS*	00000000 TAG_NONE
00000000 l       *ABS*	00000000 TAG_HOST
00000001 l       *ABS*	00000000 RTR_ALLOC_FIRST
00000400 l       *ABS*	00000000 RTR_ALLOC_LAST
000003ff l       *ABS*	00000000 RTR_ALLOC_MAX
00000001 l       *ABS*	00000000 ALLOC_LOCK
00000002 l       *ABS*	00000000 ALLOC_ID
00000005 l       *ABS*	00000000 A_LOCK_SEMA
00000001 l       *ABS*	00000000 A_RTE_RESET
00000002 l       *ABS*	00000000 A_RTE_UNDEF
00000003 l       *ABS*	00000000 A_RTE_SVC
00000004 l       *ABS*	00000000 A_RTE_PABT
00000005 l       *ABS*	00000000 A_RTE_DABT
00000006 l       *ABS*	00000000 A_RTE_IRQ
00000007 l       *ABS*	00000000 A_RTE_FIQ
00000008 l       *ABS*	00000000 A_RTE_VIC
00000002 l       *ABS*	00000000 A_STATE_RTE
00000006 l       *ABS*	00000000 EVENT_COUNT
00000000 l       *ABS*	00000000 CMD_VER
00000001 l       *ABS*	00000000 CMD_RUN
00000002 l       *ABS*	00000000 CMD_READ
00000003 l       *ABS*	00000000 CMD_WRITE
00000004 l       *ABS*	00000000 CMD_APLX
00000005 l       *ABS*	00000000 CMD_FILL
00000010 l       *ABS*	00000000 CMD_REMAP
00000011 l       *ABS*	00000000 CMD_LINK_READ
00000012 l       *ABS*	00000000 CMD_LINK_WRITE
00000013 l       *ABS*	00000000 CMD_AR
00000014 l       *ABS*	00000000 CMD_NNP
00000016 l       *ABS*	00000000 CMD_SIG
00000017 l       *ABS*	00000000 CMD_FFD
00000018 l       *ABS*	00000000 CMD_AS
00000019 l       *ABS*	00000000 CMD_LED
0000001a l       *ABS*	00000000 CMD_IPTAG
0000001b l       *ABS*	00000000 CMD_SROM
0000001c l       *ABS*	00000000 CMD_ALLOC
0000001d l       *ABS*	00000000 CMD_RTR
0000001f l       *ABS*	00000000 CMD_INFO
00000040 l       *ABS*	00000000 CMD_TUBE
00000080 l       *ABS*	00000000 RC_OK
00000081 l       *ABS*	00000000 RC_LEN
00000082 l       *ABS*	00000000 RC_SUM
00000083 l       *ABS*	00000000 RC_CMD
00000084 l       *ABS*	00000000 RC_ARG
00000085 l       *ABS*	00000000 RC_PORT
00000086 l       *ABS*	00000000 RC_TIMEOUT
00000087 l       *ABS*	00000000 RC_ROUTE
00000088 l       *ABS*	00000000 RC_CPU
00000089 l       *ABS*	00000000 RC_DEAD
0000008a l       *ABS*	00000000 RC_BUF
0000008b l       *ABS*	00000000 RC_P2P_NOREPLY
0000008c l       *ABS*	00000000 RC_P2P_REJECT
0000008d l       *ABS*	00000000 RC_P2P_BUSY
0000008e l       *ABS*	00000000 RC_P2P_TIMEOUT
0000008f l       *ABS*	00000000 RC_PKT_TX
00000000 l       *ABS*	00000000 TYPE_BYTE
00000001 l       *ABS*	00000000 TYPE_HALF
00000002 l       *ABS*	00000000 TYPE_WORD
00000008 l       *ABS*	00000000 NUM_SDP_PORTS
00000005 l       *ABS*	00000000 PORT_SHIFT
000000e0 l       *ABS*	00000000 PORT_MASK
0000001f l       *ABS*	00000000 CPU_MASK
000000ff l       *ABS*	00000000 PORT_ETH
00000100 l       *ABS*	00000000 SDP_BUF_SIZE
00000080 l       *ABS*	00000000 VCPU_SIZE
0000002c l       *ABS*	00000000 VCPU_RT_CODE
0000002e l       *ABS*	00000000 VCPU_CPU_STATE
0000002f l       *ABS*	00000000 VCPU_APP_ID
0000001c l       *ABS*	00000000 SARK_MSG_INT
0000001d l       *ABS*	00000000 SARK_SIG_INT
00000000 l       *ABS*	00000000 SARK_VIRT_CPU
00000008 l       *ABS*	00000000 SARK_RANDOM
00000030 l       *ABS*	00000000 SARK_CPU_CLK
00000020 l       *ABS*	00000000 SV_SSIZE
00000060 l       *ABS*	00000000 SV_USIZE
00000080 l       *ABS*	00000000 SV_ISIZE
00000020 l       *ABS*	00000000 SV_VSIZE
00000040 l       *ABS*	00000000 SV_RSIZE
00001000 l       *ABS*	00000000 SV_SIZE
e5007fe0 l       *ABS*	00000000 SV_SROM
e5007f80 l       *ABS*	00000000 SV_UBASE
e5007f00 l       *ABS*	00000000 SV_IBASE
e5007f00 l       *ABS*	00000000 SV_SV
00000100 l       *ABS*	00000000 SYS_BOOT
e5007000 l       *ABS*	00000000 SYS_USER_TOP
e5000100 l       *ABS*	00000000 SYS_USER_BASE
e5007ee0 l       *ABS*	00000000 SV_VECTORS
e5007ea0 l       *ABS*	00000000 SV_RANDOM
e5007000 l       *ABS*	00000000 SV_VCPU
e5007900 l       *ABS*	00000000 SV_SPARE
000005a0 l       *ABS*	00000000 SPARE_SIZE
e5007fe0 l       *ABS*	00000000 SROM_FLAG_BASE
e5007f80 l       *ABS*	00000000 STATUS_MAP_BASE
e5007ee0 l       *ABS*	00000000 RST_BLOCK_BASE
00008000 l       *ABS*	00000000 SRF_PRESENT
000000f0 l       *ABS*	00000000 SRF_HW_VER
00000008 l       *ABS*	00000000 SRF_PHY_INIT
00000004 l       *ABS*	00000000 SRF_PHY_RST
00000002 l       *ABS*	00000000 SRF_PHY_WAIT
00000001 l       *ABS*	00000000 SRF_ETH
00000000 l       *ABS*	00000000 SRF_NONE
00000020 l       RO_DATA	00000000 reset_vec
00000004 l       RO_DATA	00000000 undef
00000024 l       RO_DATA	00000000 undef_vec
00000028 l       RO_DATA	00000000 svc_vec
0000002c l       RO_DATA	00000000 pabt_vec
00000030 l       RO_DATA	00000000 dabt_vec
0000003c l       RO_DATA	00000000 fiq_vec
00000078 l       RO_DATA	00000000 reset_entry
000000d8 l       RO_DATA	00000000 undef_error
000000e0 l       RO_DATA	00000000 svc_error
000000e8 l       RO_DATA	00000000 pabt_error
000000f0 l       RO_DATA	00000000 dabt_error
00000034 l       RO_DATA	00000000 aplx_proc
00000038 l       RO_DATA	00000000 irq_vec
000000f8 l       RO_DATA	00000000 irq_error
00000100 l       RO_DATA	00000000 fiq_error
00000040 l       RO_DATA	00000000 svc_stack
00000042 l       RO_DATA	00000000 irq_stack
00000044 l       RO_DATA	00000000 fiq_stack
00000046 l       RO_DATA	00000000 stack_size
00000048 l       RO_DATA	00000000 code_top
0000004c l       RO_DATA	00000000 heap_base
00000050 l       RO_DATA	00000000 stack_top
00000054 l       RO_DATA	00000000 stack_fill
00000058 l       RO_DATA	00000000 num_msgs
00000059 l       RO_DATA	00000000 sark_slot
0000005a l       RO_DATA	00000000 num_events
0000005b l       RO_DATA	00000000 api
0000005c l       RO_DATA	00000000 app_id
0000005d l       RO_DATA	00000000 app_flags
0000005e l       RO_DATA	00000000 __PAD
00000060 l       RO_DATA	00000000 event_vec
000000d0 l       RO_DATA	00000000 reset_error
00000114 l       RO_DATA	00000000 exc_error
00000138 l       RO_DATA	00000000 cc_error
000001fc l       RO_DATA	00000000 lg1
00000238 l       RO_DATA	00000000 ws1
00000298 l       RO_DATA	00000000 wc2
00000280 l       RO_DATA	00000000 wc1
000002c4 l       RO_DATA	00000000 delay1
0000038c l       RO_DATA	00000000 aplx_buffer
00000390 l       RO_DATA	00000000 aplx_loader
0000037c l       RO_DATA	00000000 aplx_l0
000003a8 l       RO_DATA	00000000 aplx_copy
000003a4 l       RO_DATA	00000000 aplx_rcopy
000003b6 l       RO_DATA	00000000 aplx_fill
000003c6 l       RO_DATA	00000000 aplx_exec
000003bc l       RO_DATA	00000000 aplx_l1
00000000 l    df *ABS*	00000000 sark_base.c
00000000 l    df *ABS*	00000000 sark_event.c
00000000 l    df *ABS*	00000000 sark_timer.c
00000000 l    df *ABS*	00000000 sark_hw.c
00000000 l    df *ABS*	00000000 sark_isr.c
00000000 l    df *ABS*	00000000 sark_alloc.c
00000000 l    df *ABS*	00000000 sark_io.c
00003dec l     F RO_DATA	00000040 io_buf_init
00003f60 l     F RO_DATA	000000ba io_put_fixed
004042b0 l     O ZI_DATA	00000004 buf_ptr
004042b4 l     O ZI_DATA	00000004 io_buf
004042b8 l     O ZI_DATA	00000004 io_msg
004042bc l     O ZI_DATA	00000004 sp_ptr
00006c0d l     O RO_DATA	00000011 hex
00000000 l    df *ABS*	00000000 sark_pkt.c
00000000 l    df *ABS*	00000000 sark_div0.c
00000000 l    df *ABS*	00000000 out_spikes.c
0040000c l     O ZI_DATA	00000004 out_spikes_size
00400010 l     O ZI_DATA	00000004 spikes
00000000 l    df *ABS*	00000000 c_main.c
00400014 l     O ZI_DATA	00000004 infinite_run
00400018 l     O ZI_DATA	00000004 simulation_ticks
0040001c l     O ZI_DATA	00000004 recording_flags
00000000 l    df *ABS*	00000000 synapses.c
00400020 l     O ZI_DATA	00000004 n_neurons
00400024 l     O ZI_DATA	00000004 neuron_synapse_shaping_params
00400028 l     O ZI_DATA	00000008 ring_buffer_to_input_left_shifts
00400030 l     O ZI_DATA	00004000 ring_buffers
00404034 l     O ZI_DATA	00000004 saturation_count
00000000 l    df *ABS*	00000000 neuron.c
00404038 l     O ZI_DATA	00000004 n_recordings_outstanding
0040403c l     O ZI_DATA	00000004 global_parameters
00404040 l     O ZI_DATA	00000004 n_neurons
00404044 l     O ZI_DATA	00000004 neuron_array
00404048 l     O ZI_DATA	00000004 threshold_type_array
0040404c l     O ZI_DATA	00000004 random_backoff
00404050 l     O ZI_DATA	00000004 time_between_spikes
00404054 l     O ZI_DATA	00000001 use_key
00404058 l     O ZI_DATA	00000004 key
0040405c l     O ZI_DATA	00000004 recording_flags
00404060 l     O ZI_DATA	00000004 voltages
00404064 l     O ZI_DATA	00000004 inputs_excitatory
00404068 l     O ZI_DATA	00000004 inputs_inhibitory
0040406c l     O ZI_DATA	00000004 neuron_synapse_shaping_params
00404070 l     O ZI_DATA	00000004 expected_time
00000000 l    df *ABS*	00000000 spike_processing.c
00404074 l     O ZI_DATA	00000004 buffer
00404078 l     O ZI_DATA	00000001 dma_busy
0040407c l     O ZI_DATA	00000004 buffer_being_read
00404080 l     O ZI_DATA	00000010 single_fixed_synapse
00404090 l     O ZI_DATA	00000004 next_buffer_to_fill
00404094 l     O ZI_DATA	00000020 dma_buffers
004040b4 l     O ZI_DATA	00000004 spike
00000000 l    df *ABS*	00000000 population_table_binary_search_impl.c
004040b8 l     O ZI_DATA	00000004 master_population_table_length
004040bc l     O ZI_DATA	00000004 master_population_table
004040c0 l     O ZI_DATA	00000004 address_list
004040c4 l     O ZI_DATA	00000004 synaptic_rows_base_address
004040c8 l     O ZI_DATA	00000004 direct_rows_base_address
004040cc l     O ZI_DATA	00000004 last_neuron_id
004040d0 l     O ZI_DATA	00000002 next_item
004040d2 l     O ZI_DATA	00000002 items_to_go
00000000 l    df *ABS*	00000000 my_neuron_model_impl.c
00000000 l    df *ABS*	00000000 synapse_dynamics_static_impl.c
00000000 l    df *ABS*	00000000 data_specification.c
00000000 l    df *ABS*	00000000 simulation.c
0000219c l     F RO_DATA	000000a8 _execute_provenance_storage
004040d4 l     O ZI_DATA	00000040 dma_complete_callbacks
00404114 l     O ZI_DATA	00000004 pointer_to_infinite_run
00404118 l     O ZI_DATA	00000004 pointer_to_simulation_time
0040411c l     O ZI_DATA	00000020 sdp_callback
0040413c l     O ZI_DATA	00000004 stored_exit_function
00404140 l     O ZI_DATA	00000004 stored_provenance_data_address
00404144 l     O ZI_DATA	00000004 stored_provenance_function
00404148 l     O ZI_DATA	00000004 stored_resume_function
00000000 l    df *ABS*	00000000 recording.c
0000269c l     F RO_DATA	00000060 compute_available_space_in_channel
000026fc l     F RO_DATA	0000004c _create_buffer_message
000027b0 l     F RO_DATA	000000b0 _buffering_in_handler
00002860 l     F RO_DATA	000000b0 _recording_write
0040414c l     O ZI_DATA	00000004 buffer_size_before_trigger
00404150 l     O ZI_DATA	00000004 data_ptr
00404154 l     O ZI_DATA	00000004 dma_complete_buffer
00404158 l     O ZI_DATA	00000004 g_recording_channels
0040415c l     O ZI_DATA	00000004 last_sequence_number
00404160 l     O ZI_DATA	00000004 last_time_buffering_trigger
00404164 l     O ZI_DATA	00000124 msg
00404288 l     O ZI_DATA	00000004 n_recording_regions
0040428c l     O ZI_DATA	00000004 region_addresses
00404290 l     O ZI_DATA	00000004 region_sizes
00404294 l     O ZI_DATA	00000004 req_hdr
00404298 l     O ZI_DATA	00000004 sdp_port
0040429c l     O ZI_DATA	00000004 sequence_number
004042a0 l     O ZI_DATA	00000004 time_between_triggers
00000000 l    df *ABS*	00000000 profiler.c
00000000 l    df *ABS*	00000000 circular_buffer.c
00000000 l    df *ABS*	00000000 spin1_api.c
004042c0 l     O ZI_DATA	00000004 paused
004042c4 l     O ZI_DATA	00000004 resume_sync
004042c8 l     O ZI_DATA	00000004 run
004042cc l     O ZI_DATA	00000320 task_queue
004045ec l     O ZI_DATA	00000004 timer_phase
004045f0 l     O ZI_DATA	00000004 timer_tick
00000000 l    df *ABS*	00000000 spin1_isr.c
00000000 l    df *ABS*	00000000 memcpy-stub.c
00000000 l    df *ABS*	00000000 memset.c
00000000 l    df *ABS*	00000000 my_model_curr_exp_build.c
000052b0 l     F RO_DATA	00000008 __spin1_start_paused_from_arm
000052b8 l     F RO_DATA	00000008 __spin1_exit_from_arm
000052c0 l     F RO_DATA	00000008 __spin1_pause_from_arm
000052c8 l     F RO_DATA	00000008 __spin1_msg_free_from_arm
000052d0 l     F RO_DATA	00000008 __spin1_send_sdp_msg_from_arm
000052d8 l     F RO_DATA	00000008 __sark_msg_free_from_arm
004046dc g     O ZI_DATA	00000004 old_vector
000001e8 g     F RO_DATA	00000000 sark_lock_get
00004be0 g     F RO_DATA	00000030 sark_pre_main
000035cc g     F RO_DATA	00000034 sark_shmsg_get
00004af8 g     F RO_DATA	0000000c spin1_get_core_id
00002ae4 g     F RO_DATA	0000006c _recording_buffer_state_data_write
00004cc8 g     F RO_DATA	00000074 cc_fr_ready_isr
000001b8 g     F RO_DATA	00000000 spin1_int_enable
00000040 g       *ABS*	00000000 RO_FROM
00000800 g       *ABS*	00000000 STACK_SIZE
00002680 g     F RO_DATA	0000001c simulation_set_provenance_function
00000362 g     F RO_DATA	00000000 sark_bx
00003d28 g     F RO_DATA	000000a4 sark_xfree
000042ac g     F RO_DATA	00000008 spin1_msg_free
00404600 g     O ZI_DATA	00000004 voltages_size
00001ffc g     F RO_DATA	00000004 neuron_model_set_global_neuron_params
000025a8 g     F RO_DATA	000000d8 simulation_initialise
00004638 g     F RO_DATA	00000088 spin1_callback_on
00000258 g     F RO_DATA	00000000 sark_msg_cpy
00004bac g     F RO_DATA	00000034 spin1_trigger_user_event
004042a8 g     O ZI_DATA	00000004 profiler_output
000049d0 g     F RO_DATA	00000012 spin1_memcpy
00003b50 g     F RO_DATA	0000003c event_alloc
000046f8 g     F RO_DATA	0000006c clean_up
0000355c g     F RO_DATA	0000001e sark_block_init
00004f08 g     F RO_DATA	00000088 timer1_isr
00003c1c g     F RO_DATA	00000028 sark_fiq_han
000017b4 g     F RO_DATA	000001b8 _user_event_callback
00000010 g       *ABS*	00000000 APLX_ENTRY
000035ac g     F RO_DATA	00000020 sark_msg_free
00001ad8 g     F RO_DATA	000002f0 population_table_initialise
00000d4c g     F RO_DATA	00000010 synapses_get_saturation_count
00004fd0 g     F RO_DATA	00000068 soft_int_isr
000004b0 g     F RO_DATA	00000024 out_spikes_record
00004ae8 g     F RO_DATA	00000010 spin1_send_mc_packet
004045f8 g     O ZI_DATA	00000004 out_spikes
000042bc g     F RO_DATA	00000028 configure_dma_controller
000004d4 g     F RO_DATA	00000084 out_spikes_is_empty
000006e0 g     F RO_DATA	00000240 c_main
00002c38 g     F RO_DATA	00000120 recording_reset
0000394c g     F RO_DATA	00000168 sark_int
00003524 g     F RO_DATA	00000008 circular_buffer_get_n_buffer_overflows
00404030 g     O ZI_DATA	00000004 num_fixed_pre_synaptic_events
00004318 g     F RO_DATA	0000016c configure_vic
00000300 g     F RO_DATA	00000000 sark_int_han
00003ab4 g     F RO_DATA	00000058 event_wait
00005088 g     F RO_DATA	00000114 memcpy
000005bc g     F RO_DATA	0000004c resume_callback
00003938 g     F RO_DATA	00000014 sark_wait
000001d8 g     F RO_DATA	00000000 spin1_mode_restore
00000608 g     F RO_DATA	000000d8 timer_callback
000001a8 g     F RO_DATA	00000000 spin1_irq_disable
00003928 g     F RO_DATA	00000010 sark_cmd_fill
00003b8c g     F RO_DATA	00000050 sark_vic_init
00004e90 g     F RO_DATA	00000078 dma_done_fiqsr
0000016c g     F RO_DATA	00000000 cpu_shutdown
0000121c g     F RO_DATA	000002bc neuron_do_timestep_update
004042ac g     O ZI_DATA	00000004 profiler_samples_remaining
000001d8 g     F RO_DATA	00000000 cpu_int_restore
004046e0 g     O ZI_DATA	00000048 diagnostics
00410000 g       *ABS*	00000000 STACK_TOP
00003058 g     F RO_DATA	0000020c recording_do_timestep_update
00404990 g       ZI_DATA	00000000 HEAP_BASE
00003c44 g     F RO_DATA	000000cc sark_xalloc
000022a0 g     F RO_DATA	00000038 _send_ok_response
00404728 g     O ZI_DATA	00000004 old_enable
000042e4 g     F RO_DATA	00000034 configure_timer1
00000b3c g     F RO_DATA	00000124 synapses_do_timestep_update
000020ac g     F RO_DATA	00000004 synapse_dynamics_print_plastic_synapses
00002910 g     F RO_DATA	000001d4 recording_record_and_notify
00002b50 g     F RO_DATA	000000e8 recording_finalise
00000364 g     F RO_DATA	00000000 __gnu_thumb1_case_uqi
0040472c g     O ZI_DATA	00000004 user_arg1
00003600 g     F RO_DATA	00000024 sark_shmsg_free
00000334 g     F RO_DATA	00000000 schedule
00004d74 g     F RO_DATA	0000008c cc_tx_empty_isr
00404604 g     O ZI_DATA	00000004 input_size
0000012c g     F RO_DATA	00000000 rt_error
00004c90 g     F RO_DATA	00000038 cc_rx_ready_fiqsr
00000e78 g     F RO_DATA	00000030 neuron_reload_neuron_parameters
00004b04 g     F RO_DATA	0000000c spin1_get_chip_id
0000120c g     F RO_DATA	00000010 neuron_set_neuron_synapse_shaping_params
00400004 g     O RW_DATA	00000004 fr_pkt_prio
00003538 g     F RO_DATA	00000010 sark_cpu_state
004045f4 g     O ZI_DATA	00000001 user_pending
00000920 g     F RO_DATA	0000021c synapses_initialise
000003cc g     F RO_DATA	0000002c out_spikes_reset
00002070 g     F RO_DATA	00000008 synapse_dynamics_initialise
00001dc8 g     F RO_DATA	00000168 population_table_get_first_address
0000151c g     F RO_DATA	00000298 _dma_complete_callback
00004918 g     F RO_DATA	0000000c spin1_start_paused
00400008 g     O RW_DATA	00000004 mc_pkt_prio
00004c10 g     F RO_DATA	0000000a sark_post_main
00006d90 g       *ABS*	00000000 RW_FROM
000001a8 g     F RO_DATA	00000000 cpu_irq_disable
00003264 g     F RO_DATA	00000094 profiler_init
00000000 g       RO_DATA	00000000 cpu_reset
000002d0 g     F RO_DATA	00000000 sark_div10
000042b4 g     F RO_DATA	00000008 spin1_send_sdp_msg
00000108 g       RO_DATA	00000000 vic_error
00400000 g       *ABS*	00000000 DTCM_BASE
00000588 g     F RO_DATA	00000034 c_main_store_provenance_data
00004924 g     F RO_DATA	00000008 spin1_delay_us
00002284 g     F RO_DATA	0000001c simulation_handle_pause_resume
00003354 g     F RO_DATA	000000e0 circular_buffer_initialize
00006104 g     O RO_DATA	00000010 build_name
00003e2c g     F RO_DATA	00000048 sark_io_buf_reset
00000360  w    F RO_DATA	00000000 sark_config
000044fc g     F RO_DATA	0000002c spin1_resume
0000196c g     F RO_DATA	00000118 spike_processing_initialise
00000d5c g     F RO_DATA	0000001c synapses_get_pre_synaptic_events
00003b0c g     F RO_DATA	0000002c event_pause
000034c4 g     F RO_DATA	00000040 circular_buffer_advance_if_next_equals
000032f8 g     F RO_DATA	0000005c profiler_finalise
00006114 g     O RO_DATA	00000004 build_date
0000020c g     F RO_DATA	00000000 sark_lock_free
00003d10 g     F RO_DATA	00000018 sark_alloc
00400000 g       *ABS*	00000000 RW_BASE
000049e4 g     F RO_DATA	00000104 spin1_send_packet
000020a4 g     F RO_DATA	00000008 synapse_dynamics_get_intrinsic_bias
004042a4 g     O ZI_DATA	00000004 profiler_count
0000000c g       ZI_DATA	00000000 RW_LENGTH
00002078 g     F RO_DATA	00000004 synapse_dynamics_process_post_synaptic_event
00005038 g     F RO_DATA	00000050 soft_int_fiqsr
00004550 g     F RO_DATA	000000e8 dispatch
00000190 g     F RO_DATA	00000000 cpu_init_mode
00000268 g     F RO_DATA	00000000 sark_word_cpy
00000040 g       *ABS*	00000000 APLX_SIZE
0000017c g     F RO_DATA	00000000 cpu_sleep
00400000 g     O RW_DATA	00000004 fiq_event
00404730 g     O ZI_DATA	00000001 leadAp
00404608 g     O ZI_DATA	0000003c sark
00001f30 g     F RO_DATA	000000cc population_table_get_next_address
0000377c g     F RO_DATA	00000098 sark_msg_send
000001e0 g     F RO_DATA	00000000 spin1_wfi
00003814 g     F RO_DATA	00000050 sark_cmd_ver
000001e0 g     F RO_DATA	00000000 cpu_wfi
0000519c g     F RO_DATA	00000114 memset
00003b38 g     F RO_DATA	00000018 event_stop
00003504 g     F RO_DATA	00000020 circular_buffer_size
000020b8 g     F RO_DATA	00000044 data_specification_get_data_address
000044b8 g     F RO_DATA	00000044 resume
000001c8 g     F RO_DATA	00000000 cpu_int_disable
00003bdc g     F RO_DATA	00000040 sark_vic_set
00003dcc g     F RO_DATA	0000001e sark_heap_init
000003f8 g     F RO_DATA	000000b8 out_spikes_initialize
00004d3c g     F RO_DATA	00000038 cc_fr_ready_fiqsr
000046c0 g     F RO_DATA	00000024 spin1_exit
00404644 g     O ZI_DATA	00000098 event
000052e0 g       RO_DATA	00000000 __init_array_end
004045fc g     O ZI_DATA	00000004 time
00002190 g     F RO_DATA	0000000c data_specification_get_region
000038c4 g     F RO_DATA	00000064 sark_cmd_write
00004c1c g     F RO_DATA	00000074 cc_rx_ready_isr
00004b10 g     F RO_DATA	0000000a spin1_malloc
00004484 g     F RO_DATA	00000034 spin1_pause
00002538 g     F RO_DATA	00000070 simulation_dma_transfer_done_callback_on
00003640  w    F RO_DATA	0000013c sark_init
000020b0 g     F RO_DATA	00000008 synapse_dynamics_get_plastic_pre_synaptic_events
00000584 g     F RO_DATA	00000004 out_spikes_print
0000207c g     F RO_DATA	00000028 synapse_dynamics_process_plastic_synapses
0000352c  w    F RO_DATA	0000000c rte_handler
00000374 g     F RO_DATA	00000000 sark_aplx
00004764 g     F RO_DATA	00000078 report_debug
0000401c g     F RO_DATA	00000290 io_printf
00404734 g     O ZI_DATA	00000148 dma_queue
00000234 g     F RO_DATA	00000000 sark_word_set
0040487c g     O ZI_DATA	00000004 old_select
000022d8 g     F RO_DATA	00000214 _simulation_control_scp_callback
000047dc g     F RO_DATA	00000048 report_warns
00003488 g     F RO_DATA	0000003c circular_buffer_get_next
00000d90 g     F RO_DATA	000000e8 _neuron_load_neuron_parameters
00004e00 g     F RO_DATA	00000090 dma_done_isr
00404880 g     O ZI_DATA	00000004 ticks
00002748 g     F RO_DATA	00000068 _recording_dma_finished
00000330 g     F RO_DATA	00000000 null_int_han
0000492c g     F RO_DATA	000000a4 spin1_dma_transfer
00004b1c g     F RO_DATA	00000090 schedule_sysmode
000024ec g     F RO_DATA	0000004c simulation_sdp_callback_on
00000ea8 g     F RO_DATA	00000274 neuron_initialise
00002244 g     F RO_DATA	0000001c _simulation_sdp_callback_handler
00002054 g     F RO_DATA	00000008 neuron_model_get_membrane_voltage
00002280 g     F RO_DATA	00000004 simulation_run
00004f90 g     F RO_DATA	00000040 timer1_fiqsr
00002260 g     F RO_DATA	00000020 _simulation_dma_transfer_done_callback
00003434 g     F RO_DATA	00000054 circular_buffer_add
00000220 g     F RO_DATA	00000000 sark_str_cpy
00004528 g     F RO_DATA	00000028 resume_wait
0040000c g       *ABS*	00000000 ZI_BASE
00000000 g       *ABS*	00000000 RO_BASE
000001b8 g     F RO_DATA	00000000 cpu_int_enable
00404884 g     O ZI_DATA	00000004 user_arg0
00000c60 g     F RO_DATA	000000ec synapses_process_synaptic_row
0000206c g     F RO_DATA	00000004 neuron_model_print_parameters
00003548 g     F RO_DATA	00000014 sark_app_lead
00001ac8 g     F RO_DATA	00000010 spike_processing_get_buffer_overflows
0000205c g     F RO_DATA	0000000c neuron_model_has_spiked
00001a84 g     F RO_DATA	00000044 spike_processing_finish_write
00000000 g       *ABS*	00000000 ITCM_BASE
00004824 g     F RO_DATA	000000f4 start
000052e0 g       RO_DATA	00000000 __init_array_start
00404888 g     O ZI_DATA	00000040 callback
000046e4 g     F RO_DATA	00000014 spin1_set_timer_tick_and_phase
00003624 g     F RO_DATA	0000001c sark_call_cpp_constructors
00003e74 g     F RO_DATA	000000ec io_put_char
0000111c g     F RO_DATA	000000f0 neuron_store_neuron_parameters
000020fc g     F RO_DATA	00000094 data_specification_read_header
00002000 g     F RO_DATA	00000054 neuron_model_state_update
000014d8 g     F RO_DATA	00000044 _multicast_packet_received_callback
00002068 g     F RO_DATA	00000004 neuron_model_print_state_variables
000001c8 g     F RO_DATA	00000000 spin1_int_disable
00003864 g     F RO_DATA	00000060 sark_cmd_read
00002d58 g     F RO_DATA	00000300 recording_initialize
00004984 g       *ABS*	00000000 ZI_LENGTH
00006d60 g       RW_DATA	00000000 RO_LENGTH
00000d78 g     F RO_DATA	00000018 recording_done_callback
0000357c g     F RO_DATA	00000030 sark_msg_get
00000558 g     F RO_DATA	0000002c out_spikes_is_spike
000002bc g     F RO_DATA	00000000 sark_delay_us
004048c8 g     O ZI_DATA	000000c8 tx_packet_queue



Disassembly of section RO_DATA:

00000000 <cpu_reset>:
       0:	e59ff018 	ldr	pc, [pc, #24]	; 20 <reset_vec>

00000004 <undef>:
       4:	e59ff018 	ldr	pc, [pc, #24]	; 24 <undef_vec>
       8:	e59ff018 	ldr	pc, [pc, #24]	; 28 <svc_vec>
       c:	e59ff018 	ldr	pc, [pc, #24]	; 2c <pabt_vec>
      10:	e59ff018 	ldr	pc, [pc, #24]	; 30 <dabt_vec>
      14:	ebfffffa 	bl	4 <undef>
      18:	e51ffff0 	ldr	pc, [pc, #-4080]	; fffff030 <ROM_TOP+0x9ff7030>
      1c:	e59ff018 	ldr	pc, [pc, #24]	; 3c <fiq_vec>

00000020 <reset_vec>:
      20:	00000078 	.word	0x00000078

00000024 <undef_vec>:
      24:	000000d8 	.word	0x000000d8

00000028 <svc_vec>:
      28:	000000e0 	.word	0x000000e0

0000002c <pabt_vec>:
      2c:	000000e8 	.word	0x000000e8

00000030 <dabt_vec>:
      30:	000000f0 	.word	0x000000f0

00000034 <aplx_proc>:
      34:	00000375 	.word	0x00000375

00000038 <irq_vec>:
      38:	000000f8 	.word	0x000000f8

0000003c <fiq_vec>:
      3c:	00000100 	.word	0x00000100

00000040 <svc_stack>:
      40:	0060      	.short	0x0060

00000042 <irq_stack>:
      42:	0040      	.short	0x0040

00000044 <fiq_stack>:
      44:	0040      	.short	0x0040

00000046 <stack_size>:
      46:	0800      	.short	0x0800

00000048 <code_top>:
      48:	00006d60 	.word	0x00006d60

0000004c <heap_base>:
      4c:	00404990 	.word	0x00404990

00000050 <stack_top>:
      50:	00410000 	.word	0x00410000

00000054 <stack_fill>:
      54:	deaddead 	.word	0xdeaddead

00000058 <num_msgs>:
      58:	04          	.byte	0x04

00000059 <sark_slot>:
      59:	0f          	.byte	0x0f

0000005a <num_events>:
      5a:	10          	.byte	0x10

0000005b <api>:
	...

0000005c <app_id>:
	...

0000005d <app_flags>:
	...

0000005e <__PAD>:
	...

00000060 <event_vec>:
	...

00000078 <reset_entry>:
      78:	e24f1060 	sub	r1, pc, #96	; 0x60
      7c:	e1c103bc 	strh	r0, [r1, #60]	; 0x3c
      80:	e28f0048 	add	r0, pc, #72	; 0x48
      84:	e5810000 	str	r0, [r1]
      88:	e59f00f4 	ldr	r0, [pc, #244]	; 184 <DMA_CRCT+0x4>
      8c:	ee010f10 	mcr	15, 0, r0, cr1, cr0, {0}
      90:	e321f0d3 	msr	CPSR_c, #211	; 0xd3
      94:	e3a0d902 	mov	sp, #32768	; 0x8000
      98:	fa0000b0 	blx	360 <sark_config>
      9c:	e51fd054 	ldr	sp, [pc, #-84]	; 50 <stack_top>
      a0:	e15f26b2 	ldrh	r2, [pc, #-98]	; 46 <stack_size>
      a4:	e51f1058 	ldr	r1, [pc, #-88]	; 54 <stack_fill>
      a8:	e04d0002 	sub	r0, sp, r2
      ac:	eb000060 	bl	234 <sark_word_set>
      b0:	e1a0000d 	mov	r0, sp
      b4:	fa000d61 	blx	3640 <sark_init>
      b8:	e121f000 	msr	CPSR_c, r0
      bc:	fa000e1d 	blx	3938 <sark_wait>
      c0:	fa0012c6 	blx	4be0 <sark_pre_main>
      c4:	eb000185 	bl	6e0 <c_main>
      c8:	fa0012d0 	blx	4c10 <sark_post_main>
      cc:	eb00002a 	bl	17c <cpu_sleep>

000000d0 <reset_error>:
      d0:	e3a00001 	mov	r0, #1
      d4:	ea000014 	b	12c <rt_error>

000000d8 <undef_error>:
      d8:	e3a0b002 	mov	fp, #2
      dc:	ea00000c 	b	114 <exc_error>

000000e0 <svc_error>:
      e0:	e3a0b003 	mov	fp, #3
      e4:	ea00000a 	b	114 <exc_error>

000000e8 <pabt_error>:
      e8:	e3a0b004 	mov	fp, #4
      ec:	ea000008 	b	114 <exc_error>

000000f0 <dabt_error>:
      f0:	e3a0b005 	mov	fp, #5
      f4:	ea000006 	b	114 <exc_error>

000000f8 <irq_error>:
      f8:	e3a0b006 	mov	fp, #6
      fc:	ea000004 	b	114 <exc_error>

00000100 <fiq_error>:
     100:	e3a0b007 	mov	fp, #7
     104:	ea000002 	b	114 <exc_error>

00000108 <vic_error>:
     108:	e3a0b008 	mov	fp, #8
     10c:	e3a0042f 	mov	r0, #788529152	; 0x2f000000
     110:	e5900030 	ldr	r0, [r0, #48]	; 0x30

00000114 <exc_error>:
     114:	e1a0a00e 	mov	sl, lr
     118:	e14f8000 	mrs	r8, SPSR
     11c:	e38890c0 	orr	r9, r8, #192	; 0xc0
     120:	e3c99020 	bic	r9, r9, #32
     124:	e12ff009 	msr	CPSR_fsxc, r9
     128:	ea000002 	b	138 <cc_error>

0000012c <rt_error>:
     12c:	e1a0b000 	mov	fp, r0
     130:	e10f8000 	mrs	r8, CPSR
     134:	e1a0a00e 	mov	sl, lr

00000138 <cc_error>:
     138:	e59fc048 	ldr	ip, [pc, #72]	; 188 <DMA_CRCT+0x8>
     13c:	e59cc000 	ldr	ip, [ip]
     140:	e3a09080 	mov	r9, #128	; 0x80
     144:	e59fe040 	ldr	lr, [pc, #64]	; 18c <DMA_CRCT+0xc>
     148:	e02ee99c 	mla	lr, ip, r9, lr
     14c:	e1a0900d 	mov	r9, sp
     150:	e88e07ff 	stm	lr, {r0, r1, r2, r3, r4, r5, r6, r7, r8, r9, sl}
     154:	e5ceb02c 	strb	fp, [lr, #44]	; 0x2c
     158:	e3a08002 	mov	r8, #2
     15c:	e5ce802e 	strb	r8, [lr, #46]	; 0x2e
     160:	e1a0000b 	mov	r0, fp
     164:	e321f0d3 	msr	CPSR_c, #211	; 0xd3
     168:	fa000cef 	blx	352c <rte_handler>

0000016c <cpu_shutdown>:
     16c:	e321f0d3 	msr	CPSR_c, #211	; 0xd3
     170:	e3a0042f 	mov	r0, #788529152	; 0x2f000000
     174:	e3e01000 	mvn	r1, #0
     178:	e5801014 	str	r1, [r0, #20]

0000017c <cpu_sleep>:
     17c:	ee070f90 	mcr	15, 0, r0, cr7, cr0, {4}
     180:	eafffffd 	b	17c <cpu_sleep>
     184:	00001f7e 	.word	0x00001f7e
     188:	00404608 	.word	0x00404608
     18c:	e5007000 	.word	0xe5007000

00000190 <cpu_init_mode>:
     190:	e10f3000 	mrs	r3, CPSR
     194:	e121f001 	msr	CPSR_c, r1
     198:	e1a0d000 	mov	sp, r0
     19c:	e12ff003 	msr	CPSR_fsxc, r3
     1a0:	e0400102 	sub	r0, r0, r2, lsl #2
     1a4:	e12fff1e 	bx	lr

000001a8 <cpu_irq_disable>:
     1a8:	e10f0000 	mrs	r0, CPSR
     1ac:	e3801080 	orr	r1, r0, #128	; 0x80
     1b0:	e121f001 	msr	CPSR_c, r1
     1b4:	e12fff1e 	bx	lr

000001b8 <cpu_int_enable>:
     1b8:	e10f0000 	mrs	r0, CPSR
     1bc:	e3c010c0 	bic	r1, r0, #192	; 0xc0
     1c0:	e121f001 	msr	CPSR_c, r1
     1c4:	e12fff1e 	bx	lr

000001c8 <cpu_int_disable>:
     1c8:	e10f0000 	mrs	r0, CPSR
     1cc:	e38010c0 	orr	r1, r0, #192	; 0xc0
     1d0:	e121f001 	msr	CPSR_c, r1
     1d4:	e12fff1e 	bx	lr

000001d8 <cpu_int_restore>:
     1d8:	e12ff000 	msr	CPSR_fsxc, r0
     1dc:	e12fff1e 	bx	lr

000001e0 <cpu_wfi>:
     1e0:	ee070f90 	mcr	15, 0, r0, cr7, cr0, {4}
     1e4:	e12fff1e 	bx	lr

000001e8 <sark_lock_get>:
     1e8:	e3a0c4e2 	mov	ip, #-503316480	; 0xe2000000
     1ec:	e08cc100 	add	ip, ip, r0, lsl #2
     1f0:	e10f0000 	mrs	r0, CPSR
     1f4:	e38010c0 	orr	r1, r0, #192	; 0xc0
     1f8:	e121f001 	msr	CPSR_c, r1

000001fc <lg1>:
     1fc:	e59c1100 	ldr	r1, [ip, #256]	; 0x100
     200:	e3110102 	tst	r1, #-2147483648	; 0x80000000
     204:	1afffffc 	bne	1fc <lg1>
     208:	e12fff1e 	bx	lr

0000020c <sark_lock_free>:
     20c:	e3a0c4e2 	mov	ip, #-503316480	; 0xe2000000
     210:	e08c1101 	add	r1, ip, r1, lsl #2
     214:	e5911180 	ldr	r1, [r1, #384]	; 0x180
     218:	e121f000 	msr	CPSR_c, r0
     21c:	e12fff1e 	bx	lr

00000220 <sark_str_cpy>:
     220:	e4d12001 	ldrb	r2, [r1], #1
     224:	e3520000 	cmp	r2, #0
     228:	e4c02001 	strb	r2, [r0], #1
     22c:	1afffffb 	bne	220 <sark_str_cpy>
     230:	e12fff1e 	bx	lr

00000234 <sark_word_set>:
     234:	e1a03001 	mov	r3, r1

00000238 <ws1>:
     238:	e2522010 	subs	r2, r2, #16
     23c:	28a0000a 	stmiacs	r0!, {r1, r3}
     240:	28a0000a 	stmiacs	r0!, {r1, r3}
     244:	2afffffb 	bcs	238 <ws1>
     248:	e1b02e82 	lsls	r2, r2, #29
     24c:	28a0000a 	stmiacs	r0!, {r1, r3}
     250:	48a00002 	stmiami	r0!, {r1}
     254:	e12fff1e 	bx	lr

00000258 <sark_msg_cpy>:
     258:	e2800004 	add	r0, r0, #4
     25c:	e2811004 	add	r1, r1, #4
     260:	e1d120b0 	ldrh	r2, [r1]
     264:	e2822004 	add	r2, r2, #4

00000268 <sark_word_cpy>:
     268:	e3120003 	tst	r2, #3
     26c:	13c22003 	bicne	r2, r2, #3
     270:	12822004 	addne	r2, r2, #4
     274:	e92d4010 	push	{r4, lr}
     278:	e2522020 	subs	r2, r2, #32
     27c:	3a000005 	bcc	298 <wc2>

00000280 <wc1>:
     280:	e8b15018 	ldm	r1!, {r3, r4, ip, lr}
     284:	e8a05018 	stmia	r0!, {r3, r4, ip, lr}
     288:	e8b15018 	ldm	r1!, {r3, r4, ip, lr}
     28c:	e8a05018 	stmia	r0!, {r3, r4, ip, lr}
     290:	e2522020 	subs	r2, r2, #32
     294:	2afffff9 	bcs	280 <wc1>

00000298 <wc2>:
     298:	e1b0ce02 	lsls	ip, r2, #28
     29c:	28b15018 	ldmcs	r1!, {r3, r4, ip, lr}
     2a0:	28a05018 	stmiacs	r0!, {r3, r4, ip, lr}
     2a4:	48b10018 	ldmmi	r1!, {r3, r4}
     2a8:	48a00018 	stmiami	r0!, {r3, r4}
     2ac:	e1b0cf02 	lsls	ip, r2, #30
     2b0:	24913004 	ldrcs	r3, [r1], #4
     2b4:	24803004 	strcs	r3, [r0], #4
     2b8:	e8bd8010 	pop	{r4, pc}

000002bc <sark_delay_us>:
     2bc:	4903      	ldr	r1, [pc, #12]	; (2cc <delay1+0x8>)
     2be:	8809      	ldrh	r1, [r1, #0]
     2c0:	4341      	muls	r1, r0
     2c2:	0888      	lsrs	r0, r1, #2

000002c4 <delay1>:
     2c4:	3801      	subs	r0, #1
     2c6:	d2fd      	bcs.n	2c4 <delay1>
     2c8:	4770      	bx	lr
     2ca:	0000      	.short	0x0000
     2cc:	00404638 	.word	0x00404638

000002d0 <sark_div10>:
     2d0:	e241200a 	sub	r2, r1, #10
     2d4:	e0411121 	sub	r1, r1, r1, lsr #2
     2d8:	e0811221 	add	r1, r1, r1, lsr #4
     2dc:	e0811421 	add	r1, r1, r1, lsr #8
     2e0:	e0811821 	add	r1, r1, r1, lsr #16
     2e4:	e1a011a1 	lsr	r1, r1, #3
     2e8:	e0813101 	add	r3, r1, r1, lsl #2
     2ec:	e0522083 	subs	r2, r2, r3, lsl #1
     2f0:	52811001 	addpl	r1, r1, #1
     2f4:	4282200a 	addmi	r2, r2, #10
     2f8:	e8800006 	stm	r0, {r1, r2}
     2fc:	e12fff1e 	bx	lr

00000300 <sark_int_han>:
     300:	e92d500f 	push	{r0, r1, r2, r3, ip, lr}
     304:	e24e0004 	sub	r0, lr, #4
     308:	e14fc000 	mrs	ip, SPSR
     30c:	e321f01f 	msr	CPSR_c, #31
     310:	e92d5000 	push	{ip, lr}
     314:	fa000d8c 	blx	394c <sark_int>
     318:	e8bd5000 	pop	{ip, lr}
     31c:	e321f092 	msr	CPSR_c, #146	; 0x92
     320:	e16ff00c 	msr	SPSR_fsxc, ip
     324:	e3a0042f 	mov	r0, #788529152	; 0x2f000000
     328:	e5800030 	str	r0, [r0, #48]	; 0x30
     32c:	e8bd500f 	pop	{r0, r1, r2, r3, ip, lr}

00000330 <null_int_han>:
     330:	e25ef004 	subs	pc, lr, #4

00000334 <schedule>:
     334:	e92d5000 	push	{ip, lr}
     338:	e10fc000 	mrs	ip, CPSR
     33c:	e3cce01f 	bic	lr, ip, #31
     340:	e38ee01f 	orr	lr, lr, #31
     344:	e121f00e 	msr	CPSR_c, lr
     348:	e92d5000 	push	{ip, lr}
     34c:	fa0011f2 	blx	4b1c <schedule_sysmode>
     350:	e8bd5000 	pop	{ip, lr}
     354:	e121f00c 	msr	CPSR_c, ip
     358:	e8bd5000 	pop	{ip, lr}
     35c:	e12fff1e 	bx	lr

00000360 <sark_config>:
     360:	4770      	bx	lr

00000362 <sark_bx>:
     362:	4700      	bx	r0

00000364 <__gnu_thumb1_case_uqi>:
     364:	468c      	mov	ip, r1
     366:	4671      	mov	r1, lr
     368:	3901      	subs	r1, #1
     36a:	5c09      	ldrb	r1, [r1, r0]
     36c:	0049      	lsls	r1, r1, #1
     36e:	448e      	add	lr, r1
     370:	4661      	mov	r1, ip
     372:	4770      	bx	lr

00000374 <sark_aplx>:
     374:	b5f2      	push	{r1, r4, r5, r6, r7, lr}
     376:	4905      	ldr	r1, [pc, #20]	; (38c <aplx_buffer>)
     378:	a605      	add	r6, pc, #20	; (adr r6, 390 <aplx_loader>)
     37a:	2740      	movs	r7, #64	; 0x40

0000037c <aplx_l0>:
     37c:	ce3c      	ldmia	r6!, {r2, r3, r4, r5}
     37e:	c13c      	stmia	r1!, {r2, r3, r4, r5}
     380:	3f10      	subs	r7, #16
     382:	d1fb      	bne.n	37c <aplx_l0>
     384:	1c04      	adds	r4, r0, #0
     386:	393f      	subs	r1, #63	; 0x3f
     388:	4708      	bx	r1
	...

0000038c <aplx_buffer>:
     38c:	00007fc0 	.word	0x00007fc0

00000390 <aplx_loader>:
     390:	cc0f      	ldmia	r4!, {r0, r1, r2, r3}
     392:	2801      	cmp	r0, #1
     394:	d008      	beq.n	3a8 <aplx_copy>
     396:	2802      	cmp	r0, #2
     398:	d004      	beq.n	3a4 <aplx_rcopy>
     39a:	2803      	cmp	r0, #3
     39c:	d00b      	beq.n	3b6 <aplx_fill>
     39e:	2804      	cmp	r0, #4
     3a0:	d011      	beq.n	3c6 <aplx_exec>
     3a2:	bdf2      	pop	{r1, r4, r5, r6, r7, pc}

000003a4 <aplx_rcopy>:
     3a4:	1912      	adds	r2, r2, r4
     3a6:	3a10      	subs	r2, #16

000003a8 <aplx_copy>:
     3a8:	cae1      	ldmia	r2!, {r0, r5, r6, r7}
     3aa:	c1e1      	stmia	r1!, {r0, r5, r6, r7}
     3ac:	cae1      	ldmia	r2!, {r0, r5, r6, r7}
     3ae:	c1e1      	stmia	r1!, {r0, r5, r6, r7}
     3b0:	3b20      	subs	r3, #32
     3b2:	d8f9      	bhi.n	3a8 <aplx_copy>
     3b4:	e7ec      	b.n	390 <aplx_loader>

000003b6 <aplx_fill>:
     3b6:	1c1d      	adds	r5, r3, #0
     3b8:	1c1e      	adds	r6, r3, #0
     3ba:	1c1f      	adds	r7, r3, #0

000003bc <aplx_l1>:
     3bc:	c1e8      	stmia	r1!, {r3, r5, r6, r7}
     3be:	c1e8      	stmia	r1!, {r3, r5, r6, r7}
     3c0:	3a20      	subs	r2, #32
     3c2:	d8fb      	bhi.n	3bc <aplx_l1>
     3c4:	e7e4      	b.n	390 <aplx_loader>

000003c6 <aplx_exec>:
     3c6:	9800      	ldr	r0, [sp, #0]
     3c8:	4788      	blx	r1
     3ca:	e7e1      	b.n	390 <aplx_loader>

000003cc <out_spikes_reset>:
     3cc:	e59f201c 	ldr	r2, [pc, #28]	; 3f0 <out_spikes_reset+0x24>
     3d0:	e59f301c 	ldr	r3, [pc, #28]	; 3f4 <out_spikes_reset+0x28>
     3d4:	e5922000 	ldr	r2, [r2]
     3d8:	e5930000 	ldr	r0, [r3]
     3dc:	e3520000 	cmp	r2, #0
     3e0:	012fff1e 	bxeq	lr
     3e4:	e1a02102 	lsl	r2, r2, #2
     3e8:	e3a01000 	mov	r1, #0
     3ec:	ea00136a 	b	519c <memset>
     3f0:	0040000c 	.word	0x0040000c
     3f4:	004045f8 	.word	0x004045f8

000003f8 <out_spikes_initialize>:
     3f8:	e1a0c2a0 	lsr	ip, r0, #5
     3fc:	e310001f 	tst	r0, #31
     400:	e92d4030 	push	{r4, r5, lr}
     404:	128cc001 	addne	ip, ip, #1
     408:	e24dd00c 	sub	sp, sp, #12
     40c:	e59f5088 	ldr	r5, [pc, #136]	; 49c <MC_TABLE_SIZE+0x9c>
     410:	e58d0004 	str	r0, [sp, #4]
     414:	e58dc000 	str	ip, [sp]
     418:	e3a03021 	mov	r3, #33	; 0x21
     41c:	e59f207c 	ldr	r2, [pc, #124]	; 4a0 <MC_TABLE_SIZE+0xa0>
     420:	e59f107c 	ldr	r1, [pc, #124]	; 4a4 <MC_TABLE_SIZE+0xa4>
     424:	e3a00002 	mov	r0, #2
     428:	e585c000 	str	ip, [r5]
     42c:	fa000efa 	blx	401c <io_printf>
     430:	e5950000 	ldr	r0, [r5]
     434:	e2800001 	add	r0, r0, #1
     438:	e1a00100 	lsl	r0, r0, #2
     43c:	fa0011b3 	blx	4b10 <spin1_malloc>
     440:	e3500000 	cmp	r0, #0
     444:	e1a04000 	mov	r4, r0
     448:	e5850004 	str	r0, [r5, #4]
     44c:	0a00000b 	beq	480 <MC_TABLE_SIZE+0x80>
     450:	e5952000 	ldr	r2, [r5]
     454:	e59f304c 	ldr	r3, [pc, #76]	; 4a8 <MC_TABLE_SIZE+0xa8>
     458:	e2800004 	add	r0, r0, #4
     45c:	e3520000 	cmp	r2, #0
     460:	e5830000 	str	r0, [r3]
     464:	0a000002 	beq	474 <MC_TABLE_SIZE+0x74>
     468:	e1a02102 	lsl	r2, r2, #2
     46c:	e3a01000 	mov	r1, #0
     470:	eb001349 	bl	519c <memset>
     474:	e3a00001 	mov	r0, #1
     478:	e28dd00c 	add	sp, sp, #12
     47c:	e8bd8030 	pop	{r4, r5, pc}
     480:	e3a00002 	mov	r0, #2
     484:	e3a03025 	mov	r3, #37	; 0x25
     488:	e59f2010 	ldr	r2, [pc, #16]	; 4a0 <MC_TABLE_SIZE+0xa0>
     48c:	e59f1018 	ldr	r1, [pc, #24]	; 4ac <MC_TABLE_SIZE+0xac>
     490:	fa000ee1 	blx	401c <io_printf>
     494:	e1a00004 	mov	r0, r4
     498:	eafffff6 	b	478 <MC_TABLE_SIZE+0x78>
     49c:	0040000c 	.word	0x0040000c
     4a0:	000052e0 	.word	0x000052e0
     4a4:	000052f0 	.word	0x000052f0
     4a8:	004045f8 	.word	0x004045f8
     4ac:	0000533c 	.word	0x0000533c

000004b0 <out_spikes_record>:
     4b0:	e59fc018 	ldr	ip, [pc, #24]	; 4d0 <out_spikes_record+0x20>
     4b4:	e1a03002 	mov	r3, r2
     4b8:	e89c1004 	ldm	ip, {r2, ip}
     4bc:	e2822001 	add	r2, r2, #1
     4c0:	e58c1000 	str	r1, [ip]
     4c4:	e1a02102 	lsl	r2, r2, #2
     4c8:	e1a0100c 	mov	r1, ip
     4cc:	ea00090f 	b	2910 <recording_record_and_notify>
     4d0:	0040000c 	.word	0x0040000c

000004d4 <out_spikes_is_empty>:
     4d4:	e59f3074 	ldr	r3, [pc, #116]	; 550 <out_spikes_is_empty+0x7c>
     4d8:	e59f2074 	ldr	r2, [pc, #116]	; 554 <out_spikes_is_empty+0x80>
     4dc:	e5933000 	ldr	r3, [r3]
     4e0:	e5922000 	ldr	r2, [r2]
     4e4:	e3530000 	cmp	r3, #0
     4e8:	0a000016 	beq	548 <out_spikes_is_empty+0x74>
     4ec:	e0822103 	add	r2, r2, r3, lsl #2
     4f0:	e3a00001 	mov	r0, #1
     4f4:	e3a0c000 	mov	ip, #0
     4f8:	ea000005 	b	514 <out_spikes_is_empty+0x40>
     4fc:	e2533001 	subs	r3, r3, #1
     500:	e2422004 	sub	r2, r2, #4
     504:	0a00000e 	beq	544 <out_spikes_is_empty+0x70>
     508:	e2533001 	subs	r3, r3, #1
     50c:	e2422004 	sub	r2, r2, #4
     510:	0a00000a 	beq	540 <out_spikes_is_empty+0x6c>
     514:	e3500000 	cmp	r0, #0
     518:	0afffff7 	beq	4fc <out_spikes_is_empty+0x28>
     51c:	e5121004 	ldr	r1, [r2, #-4]
     520:	e3510000 	cmp	r1, #0
     524:	0afffff7 	beq	508 <out_spikes_is_empty+0x34>
     528:	e2533001 	subs	r3, r3, #1
     52c:	e1a0000c 	mov	r0, ip
     530:	e2422004 	sub	r2, r2, #4
     534:	1afffff3 	bne	508 <out_spikes_is_empty+0x34>
     538:	e1a00003 	mov	r0, r3
     53c:	e12fff1e 	bx	lr
     540:	e12fff1e 	bx	lr
     544:	e12fff1e 	bx	lr
     548:	e3a00001 	mov	r0, #1
     54c:	e12fff1e 	bx	lr
     550:	0040000c 	.word	0x0040000c
     554:	004045f8 	.word	0x004045f8

00000558 <out_spikes_is_spike>:
     558:	e59f3020 	ldr	r3, [pc, #32]	; 580 <out_spikes_is_spike+0x28>
     55c:	e1a022a0 	lsr	r2, r0, #5
     560:	e5933000 	ldr	r3, [r3]
     564:	e200001f 	and	r0, r0, #31
     568:	e7933102 	ldr	r3, [r3, r2, lsl #2]
     56c:	e3a02001 	mov	r2, #1
     570:	e0133012 	ands	r3, r3, r2, lsl r0
     574:	11a00002 	movne	r0, r2
     578:	03a00000 	moveq	r0, #0
     57c:	e12fff1e 	bx	lr
     580:	004045f8 	.word	0x004045f8

00000584 <out_spikes_print>:
     584:	e12fff1e 	bx	lr

00000588 <c_main_store_provenance_data>:
     588:	e92d4010 	push	{r4, lr}
     58c:	e1a04000 	mov	r4, r0
     590:	eb0001f1 	bl	d5c <synapses_get_pre_synaptic_events>
     594:	e5840000 	str	r0, [r4]
     598:	eb0001eb 	bl	d4c <synapses_get_saturation_count>
     59c:	e5840004 	str	r0, [r4, #4]
     5a0:	eb000548 	bl	1ac8 <spike_processing_get_buffer_overflows>
     5a4:	e59f300c 	ldr	r3, [pc, #12]	; 5b8 <SPARE_SIZE+0x18>
     5a8:	e5933000 	ldr	r3, [r3]
     5ac:	e584300c 	str	r3, [r4, #12]
     5b0:	e5840008 	str	r0, [r4, #8]
     5b4:	e8bd8010 	pop	{r4, pc}
     5b8:	004045fc 	.word	0x004045fc

000005bc <resume_callback>:
     5bc:	e92d4010 	push	{r4, lr}
     5c0:	eb00099c 	bl	2c38 <recording_reset>
     5c4:	eb0006bb 	bl	20b8 <data_specification_get_data_address>
     5c8:	e1a01000 	mov	r1, r0
     5cc:	e3a00001 	mov	r0, #1
     5d0:	eb0006ee 	bl	2190 <data_specification_get_region>
     5d4:	eb000227 	bl	e78 <neuron_reload_neuron_parameters>
     5d8:	e3500000 	cmp	r0, #0
     5dc:	18bd8010 	popne	{r4, pc}
     5e0:	e3a00002 	mov	r0, #2
     5e4:	e3a030cc 	mov	r3, #204	; 0xcc
     5e8:	e59f2010 	ldr	r2, [pc, #16]	; 600 <ETH_TX_SIZE>
     5ec:	e59f1010 	ldr	r1, [pc, #16]	; 604 <ETH_TX_SIZE+0x4>
     5f0:	fa000e89 	blx	401c <io_printf>
     5f4:	e3a0000d 	mov	r0, #13
     5f8:	e8bd4010 	pop	{r4, lr}
     5fc:	eafffeca 	b	12c <rt_error>
     600:	00005378 	.word	0x00005378
     604:	00005384 	.word	0x00005384

00000608 <timer_callback>:
     608:	e92d4070 	push	{r4, r5, r6, lr}
     60c:	e59f40b4 	ldr	r4, [pc, #180]	; 6c8 <timer_callback+0xc0>
     610:	e59f50b4 	ldr	r5, [pc, #180]	; 6cc <timer_callback+0xc4>
     614:	e5940000 	ldr	r0, [r4]
     618:	e5953000 	ldr	r3, [r5]
     61c:	e2800001 	add	r0, r0, #1
     620:	e3530001 	cmp	r3, #1
     624:	e5840000 	str	r0, [r4]
     628:	0a000002 	beq	638 <timer_callback+0x30>
     62c:	e5953004 	ldr	r3, [r5, #4]
     630:	e1500003 	cmp	r0, r3
     634:	2a000008 	bcs	65c <timer_callback+0x54>
     638:	eb00013f 	bl	b3c <synapses_do_timestep_update>
     63c:	e5940000 	ldr	r0, [r4]
     640:	eb0002f5 	bl	121c <neuron_do_timestep_update>
     644:	e5953008 	ldr	r3, [r5, #8]
     648:	e3530000 	cmp	r3, #0
     64c:	08bd8070 	popeq	{r4, r5, r6, pc}
     650:	e5940000 	ldr	r0, [r4]
     654:	e8bd4070 	pop	{r4, r5, r6, lr}
     658:	ea000a7e 	b	3058 <recording_do_timestep_update>
     65c:	e3a030e4 	mov	r3, #228	; 0xe4
     660:	e59f2068 	ldr	r2, [pc, #104]	; 6d0 <timer_callback+0xc8>
     664:	e59f1068 	ldr	r1, [pc, #104]	; 6d4 <timer_callback+0xcc>
     668:	e3a00002 	mov	r0, #2
     66c:	fa000e6a 	blx	401c <io_printf>
     670:	eb000690 	bl	20b8 <data_specification_get_data_address>
     674:	e1a01000 	mov	r1, r0
     678:	e3a00001 	mov	r0, #1
     67c:	eb0006c3 	bl	2190 <data_specification_get_region>
     680:	eb0002a5 	bl	111c <neuron_store_neuron_parameters>
     684:	e59f004c 	ldr	r0, [pc, #76]	; 6d8 <timer_callback+0xd0>
     688:	eb0006fd 	bl	2284 <simulation_handle_pause_resume>
     68c:	e5953008 	ldr	r3, [r5, #8]
     690:	e3530000 	cmp	r3, #0
     694:	1a000004 	bne	6ac <timer_callback+0xa4>
     698:	eb000b16 	bl	32f8 <profiler_finalise>
     69c:	e5943000 	ldr	r3, [r4]
     6a0:	e2433001 	sub	r3, r3, #1
     6a4:	e5843000 	str	r3, [r4]
     6a8:	e8bd8070 	pop	{r4, r5, r6, pc}
     6ac:	e3a030f3 	mov	r3, #243	; 0xf3
     6b0:	e59f2018 	ldr	r2, [pc, #24]	; 6d0 <timer_callback+0xc8>
     6b4:	e59f1020 	ldr	r1, [pc, #32]	; 6dc <timer_callback+0xd4>
     6b8:	e3a00002 	mov	r0, #2
     6bc:	fa000e56 	blx	401c <io_printf>
     6c0:	eb000922 	bl	2b50 <recording_finalise>
     6c4:	eafffff3 	b	698 <timer_callback+0x90>
     6c8:	004045fc 	.word	0x004045fc
     6cc:	00400014 	.word	0x00400014
     6d0:	00005378 	.word	0x00005378
     6d4:	000053c4 	.word	0x000053c4
     6d8:	000005bc 	.word	0x000005bc
     6dc:	000053ec 	.word	0x000053ec

000006e0 <c_main>:
     6e0:	e92d40f0 	push	{r4, r5, r6, r7, lr}
     6e4:	e3a0306f 	mov	r3, #111	; 0x6f
     6e8:	e24dd034 	sub	sp, sp, #52	; 0x34
     6ec:	e59f2200 	ldr	r2, [pc, #512]	; 8f4 <STACK_SIZE+0xf4>
     6f0:	e59f1200 	ldr	r1, [pc, #512]	; 8f8 <STACK_SIZE+0xf8>
     6f4:	e3a00002 	mov	r0, #2
     6f8:	fa000e47 	blx	401c <io_printf>
     6fc:	eb00066d 	bl	20b8 <data_specification_get_data_address>
     700:	e1a04000 	mov	r4, r0
     704:	eb00067c 	bl	20fc <data_specification_read_header>
     708:	e3500000 	cmp	r0, #0
     70c:	1a000015 	bne	768 <c_main+0x88>
     710:	e3a00013 	mov	r0, #19
     714:	ebfffe84 	bl	12c <rt_error>
     718:	e59fc1dc 	ldr	ip, [pc, #476]	; 8fc <STACK_SIZE+0xfc>
     71c:	e3e0e000 	mvn	lr, #0
     720:	e59d3010 	ldr	r3, [sp, #16]
     724:	e58d3000 	str	r3, [sp]
     728:	e59f21c4 	ldr	r2, [pc, #452]	; 8f4 <STACK_SIZE+0xf4>
     72c:	e59f31cc 	ldr	r3, [pc, #460]	; 900 <STACK_SIZE+0x100>
     730:	e58ce000 	str	lr, [ip]
     734:	e59f11c8 	ldr	r1, [pc, #456]	; 904 <STACK_SIZE+0x104>
     738:	e3a00002 	mov	r0, #2
     73c:	fa000e36 	blx	401c <io_printf>
     740:	e59d0010 	ldr	r0, [sp, #16]
     744:	e3a01000 	mov	r1, #0
     748:	fa000fe5 	blx	46e4 <spin1_set_timer_tick_and_phase>
     74c:	e3a02002 	mov	r2, #2
     750:	e1a00002 	mov	r0, r2
     754:	e59f11ac 	ldr	r1, [pc, #428]	; 908 <STACK_SIZE+0x108>
     758:	fa000fb6 	blx	4638 <spin1_callback_on>
     75c:	eb0006c7 	bl	2280 <simulation_run>
     760:	e28dd034 	add	sp, sp, #52	; 0x34
     764:	e8bd80f0 	pop	{r4, r5, r6, r7, pc}
     768:	e59f519c 	ldr	r5, [pc, #412]	; 90c <STACK_SIZE+0x10c>
     76c:	e3a00000 	mov	r0, #0
     770:	e1a06000 	mov	r6, r0
     774:	e1a01004 	mov	r1, r4
     778:	eb000684 	bl	2190 <data_specification_get_region>
     77c:	e58d5000 	str	r5, [sp]
     780:	e2853004 	add	r3, r5, #4
     784:	e58d6008 	str	r6, [sp, #8]
     788:	e58d6004 	str	r6, [sp, #4]
     78c:	e28d2010 	add	r2, sp, #16
     790:	e59f1178 	ldr	r1, [pc, #376]	; 910 <STACK_SIZE+0x110>
     794:	eb000783 	bl	25a8 <simulation_initialise>
     798:	e1500006 	cmp	r0, r6
     79c:	0affffdb 	beq	710 <c_main+0x30>
     7a0:	e1a01004 	mov	r1, r4
     7a4:	e3a00007 	mov	r0, #7
     7a8:	eb000678 	bl	2190 <data_specification_get_region>
     7ac:	e1a01000 	mov	r1, r0
     7b0:	e59f015c 	ldr	r0, [pc, #348]	; 914 <STACK_SIZE+0x114>
     7b4:	eb0007b1 	bl	2680 <simulation_set_provenance_function>
     7b8:	e1a01004 	mov	r1, r4
     7bc:	e3a00006 	mov	r0, #6
     7c0:	eb000672 	bl	2190 <data_specification_get_region>
     7c4:	e2851008 	add	r1, r5, #8
     7c8:	eb000962 	bl	2d58 <recording_initialize>
     7cc:	e5953008 	ldr	r3, [r5, #8]
     7d0:	e58d3000 	str	r3, [sp]
     7d4:	e59f2118 	ldr	r2, [pc, #280]	; 8f4 <STACK_SIZE+0xf4>
     7d8:	e3a03057 	mov	r3, #87	; 0x57
     7dc:	e59f1134 	ldr	r1, [pc, #308]	; 918 <STACK_SIZE+0x118>
     7e0:	e1a07000 	mov	r7, r0
     7e4:	e3a00002 	mov	r0, #2
     7e8:	fa000e0b 	blx	401c <io_printf>
     7ec:	e1570006 	cmp	r7, r6
     7f0:	0affffc6 	beq	710 <c_main+0x30>
     7f4:	e1a01004 	mov	r1, r4
     7f8:	e3a00001 	mov	r0, #1
     7fc:	eb000663 	bl	2190 <data_specification_get_region>
     800:	e5951008 	ldr	r1, [r5, #8]
     804:	e28d3018 	add	r3, sp, #24
     808:	e28d2014 	add	r2, sp, #20
     80c:	eb0001a5 	bl	ea8 <neuron_initialise>
     810:	e1500006 	cmp	r0, r6
     814:	0affffbd 	beq	710 <c_main+0x30>
     818:	e1a01004 	mov	r1, r4
     81c:	e3a00002 	mov	r0, #2
     820:	eb00065a 	bl	2190 <data_specification_get_region>
     824:	e1a01004 	mov	r1, r4
     828:	e1a05000 	mov	r5, r0
     82c:	e3a00004 	mov	r0, #4
     830:	eb000656 	bl	2190 <data_specification_get_region>
     834:	e28dc028 	add	ip, sp, #40	; 0x28
     838:	e28d1024 	add	r1, sp, #36	; 0x24
     83c:	e28d3020 	add	r3, sp, #32
     840:	e98d1002 	stmib	sp, {r1, ip}
     844:	e58d3000 	str	r3, [sp]
     848:	e59d2014 	ldr	r2, [sp, #20]
     84c:	e28d301c 	add	r3, sp, #28
     850:	e1a01000 	mov	r1, r0
     854:	e1a00005 	mov	r0, r5
     858:	eb000030 	bl	920 <synapses_initialise>
     85c:	e1500006 	cmp	r0, r6
     860:	0affffaa 	beq	710 <c_main+0x30>
     864:	e59d001c 	ldr	r0, [sp, #28]
     868:	eb000267 	bl	120c <neuron_set_neuron_synapse_shaping_params>
     86c:	e1a01004 	mov	r1, r4
     870:	e3a00003 	mov	r0, #3
     874:	eb000645 	bl	2190 <data_specification_get_region>
     878:	e28d302c 	add	r3, sp, #44	; 0x2c
     87c:	e59d2028 	ldr	r2, [sp, #40]	; 0x28
     880:	e59d1024 	ldr	r1, [sp, #36]	; 0x24
     884:	eb000493 	bl	1ad8 <population_table_initialise>
     888:	e1500006 	cmp	r0, r6
     88c:	0affff9f 	beq	710 <c_main+0x30>
     890:	e1a01004 	mov	r1, r4
     894:	e3a00005 	mov	r0, #5
     898:	eb00063c 	bl	2190 <data_specification_get_region>
     89c:	e59d2020 	ldr	r2, [sp, #32]
     8a0:	e59d1014 	ldr	r1, [sp, #20]
     8a4:	eb0005f1 	bl	2070 <synapse_dynamics_initialise>
     8a8:	e1500006 	cmp	r0, r6
     8ac:	0affff97 	beq	710 <c_main+0x30>
     8b0:	e1a02006 	mov	r2, r6
     8b4:	e59d3018 	ldr	r3, [sp, #24]
     8b8:	e3e01000 	mvn	r1, #0
     8bc:	e59d002c 	ldr	r0, [sp, #44]	; 0x2c
     8c0:	eb000429 	bl	196c <spike_processing_initialise>
     8c4:	e1500006 	cmp	r0, r6
     8c8:	0affff90 	beq	710 <c_main+0x30>
     8cc:	e1a01004 	mov	r1, r4
     8d0:	e3a00008 	mov	r0, #8
     8d4:	eb00062d 	bl	2190 <data_specification_get_region>
     8d8:	eb000a61 	bl	3264 <profiler_init>
     8dc:	e3a030be 	mov	r3, #190	; 0xbe
     8e0:	e59f200c 	ldr	r2, [pc, #12]	; 8f4 <STACK_SIZE+0xf4>
     8e4:	e59f1030 	ldr	r1, [pc, #48]	; 91c <STACK_SIZE+0x11c>
     8e8:	e3a00002 	mov	r0, #2
     8ec:	fa000dca 	blx	401c <io_printf>
     8f0:	eaffff88 	b	718 <c_main+0x38>
     8f4:	00005378 	.word	0x00005378
     8f8:	0000541c 	.word	0x0000541c
     8fc:	004045fc 	.word	0x004045fc
     900:	0000011a 	.word	0x0000011a
     904:	000054a4 	.word	0x000054a4
     908:	00000608 	.word	0x00000608
     90c:	00400014 	.word	0x00400014
     910:	f1f0c959 	.word	0xf1f0c959
     914:	00000588 	.word	0x00000588
     918:	00005448 	.word	0x00005448
     91c:	00005478 	.word	0x00005478

00000920 <synapses_initialise>:
     920:	e92d43f0 	push	{r4, r5, r6, r7, r8, r9, lr}
     924:	e1a04002 	mov	r4, r2
     928:	e24dd00c 	sub	sp, sp, #12
     92c:	e59f21c8 	ldr	r2, [pc, #456]	; afc <synapses_initialise+0x1dc>
     930:	e1a08000 	mov	r8, r0
     934:	e1a06001 	mov	r6, r1
     938:	e3a00002 	mov	r0, #2
     93c:	e59f11bc 	ldr	r1, [pc, #444]	; b00 <synapses_initialise+0x1e0>
     940:	e1a07003 	mov	r7, r3
     944:	e3a030e2 	mov	r3, #226	; 0xe2
     948:	fa000db3 	blx	401c <io_printf>
     94c:	e59f51b0 	ldr	r5, [pc, #432]	; b04 <synapses_initialise+0x1e4>
     950:	e0840084 	add	r0, r4, r4, lsl #1
     954:	e1a00180 	lsl	r0, r0, #3
     958:	e5854000 	str	r4, [r5]
     95c:	fa00106b 	blx	4b10 <spin1_malloc>
     960:	e3500000 	cmp	r0, #0
     964:	e5850004 	str	r0, [r5, #4]
     968:	0a000053 	beq	abc <synapses_initialise+0x19c>
     96c:	e5954000 	ldr	r4, [r5]
     970:	e1a01008 	mov	r1, r8
     974:	e0844084 	add	r4, r4, r4, lsl #1
     978:	e1a04184 	lsl	r4, r4, #3
     97c:	e1a02004 	mov	r2, r4
     980:	eb0011c0 	bl	5088 <memcpy>
     984:	e798c004 	ldr	ip, [r8, r4]
     988:	e59f3178 	ldr	r3, [pc, #376]	; b08 <synapses_initialise+0x1e8>
     98c:	e59f2168 	ldr	r2, [pc, #360]	; afc <synapses_initialise+0x1dc>
     990:	e88d1008 	stm	sp, {r3, ip}
     994:	e59f1170 	ldr	r1, [pc, #368]	; b0c <synapses_initialise+0x1ec>
     998:	e3a03f42 	mov	r3, #264	; 0x108
     99c:	e3a00002 	mov	r0, #2
     9a0:	e0884004 	add	r4, r8, r4
     9a4:	e585c008 	str	ip, [r5, #8]
     9a8:	fa000d9b 	blx	401c <io_printf>
     9ac:	e594c004 	ldr	ip, [r4, #4]
     9b0:	e59f3158 	ldr	r3, [pc, #344]	; b10 <synapses_initialise+0x1f0>
     9b4:	e59f2140 	ldr	r2, [pc, #320]	; afc <synapses_initialise+0x1dc>
     9b8:	e88d1008 	stm	sp, {r3, ip}
     9bc:	e59f1148 	ldr	r1, [pc, #328]	; b0c <synapses_initialise+0x1ec>
     9c0:	e3a03f42 	mov	r3, #264	; 0x108
     9c4:	e3a00002 	mov	r0, #2
     9c8:	e585c00c 	str	ip, [r5, #12]
     9cc:	fa000d92 	blx	401c <io_printf>
     9d0:	e5964000 	ldr	r4, [r6]
     9d4:	e59d2028 	ldr	r2, [sp, #40]	; 0x28
     9d8:	e2853008 	add	r3, r5, #8
     9dc:	e1a04124 	lsr	r4, r4, #2
     9e0:	e58d4000 	str	r4, [sp]
     9e4:	e59f1128 	ldr	r1, [pc, #296]	; b14 <synapses_initialise+0x1f4>
     9e8:	e5823000 	str	r3, [r2]
     9ec:	e3a00002 	mov	r0, #2
     9f0:	e59f3120 	ldr	r3, [pc, #288]	; b18 <synapses_initialise+0x1f8>
     9f4:	e59f2100 	ldr	r2, [pc, #256]	; afc <synapses_initialise+0x1dc>
     9f8:	e2844001 	add	r4, r4, #1
     9fc:	fa000d86 	blx	401c <io_printf>
     a00:	e7969104 	ldr	r9, [r6, r4, lsl #2]
     a04:	e3a00002 	mov	r0, #2
     a08:	e58d9000 	str	r9, [sp]
     a0c:	e59f3108 	ldr	r3, [pc, #264]	; b1c <synapses_initialise+0x1fc>
     a10:	e59f20e4 	ldr	r2, [pc, #228]	; afc <synapses_initialise+0x1dc>
     a14:	e59f1104 	ldr	r1, [pc, #260]	; b20 <synapses_initialise+0x200>
     a18:	e1a04014 	lsl	r4, r4, r0
     a1c:	fa000d7e 	blx	401c <io_printf>
     a20:	e3590000 	cmp	r9, #0
     a24:	0a000013 	beq	a78 <synapses_initialise+0x158>
     a28:	e1a00009 	mov	r0, r9
     a2c:	fa001037 	blx	4b10 <spin1_malloc>
     a30:	e59d3030 	ldr	r3, [sp, #48]	; 0x30
     a34:	e3500000 	cmp	r0, #0
     a38:	e1a08000 	mov	r8, r0
     a3c:	e5830000 	str	r0, [r3]
     a40:	0a000026 	beq	ae0 <synapses_initialise+0x1c0>
     a44:	e58d0004 	str	r0, [sp, #4]
     a48:	e3a03f47 	mov	r3, #284	; 0x11c
     a4c:	e59f20a8 	ldr	r2, [pc, #168]	; afc <synapses_initialise+0x1dc>
     a50:	e59f10cc 	ldr	r1, [pc, #204]	; b24 <synapses_initialise+0x204>
     a54:	e3a00002 	mov	r0, #2
     a58:	e58d9000 	str	r9, [sp]
     a5c:	fa000d6e 	blx	401c <io_printf>
     a60:	e59d3030 	ldr	r3, [sp, #48]	; 0x30
     a64:	e2844004 	add	r4, r4, #4
     a68:	e0861004 	add	r1, r6, r4
     a6c:	e1a02009 	mov	r2, r9
     a70:	e5930000 	ldr	r0, [r3]
     a74:	fa000fd5 	blx	49d0 <spin1_memcpy>
     a78:	e59d302c 	ldr	r3, [sp, #44]	; 0x2c
     a7c:	e2866004 	add	r6, r6, #4
     a80:	e5836000 	str	r6, [r3]
     a84:	e59f2070 	ldr	r2, [pc, #112]	; afc <synapses_initialise+0x1dc>
     a88:	e3a03f49 	mov	r3, #292	; 0x124
     a8c:	e59f1094 	ldr	r1, [pc, #148]	; b28 <synapses_initialise+0x208>
     a90:	e3a00002 	mov	r0, #2
     a94:	fa000d60 	blx	401c <io_printf>
     a98:	e5953004 	ldr	r3, [r5, #4]
     a9c:	e5873000 	str	r3, [r7]
     aa0:	e3a02901 	mov	r2, #16384	; 0x4000
     aa4:	e3a01000 	mov	r1, #0
     aa8:	e59f007c 	ldr	r0, [pc, #124]	; b2c <synapses_initialise+0x20c>
     aac:	eb0011ba 	bl	519c <memset>
     ab0:	e3a00001 	mov	r0, #1
     ab4:	e28dd00c 	add	sp, sp, #12
     ab8:	e8bd83f0 	pop	{r4, r5, r6, r7, r8, r9, pc}
     abc:	e1a04000 	mov	r4, r0
     ac0:	e3a030f2 	mov	r3, #242	; 0xf2
     ac4:	e59f2030 	ldr	r2, [pc, #48]	; afc <synapses_initialise+0x1dc>
     ac8:	e59f1060 	ldr	r1, [pc, #96]	; b30 <synapses_initialise+0x210>
     acc:	e3a00002 	mov	r0, #2
     ad0:	fa000d51 	blx	401c <io_printf>
     ad4:	e1a00004 	mov	r0, r4
     ad8:	e28dd00c 	add	sp, sp, #12
     adc:	e8bd83f0 	pop	{r4, r5, r6, r7, r8, r9, pc}
     ae0:	e3a00002 	mov	r0, #2
     ae4:	e59f3048 	ldr	r3, [pc, #72]	; b34 <synapses_initialise+0x214>
     ae8:	e59f200c 	ldr	r2, [pc, #12]	; afc <synapses_initialise+0x1dc>
     aec:	e59f1044 	ldr	r1, [pc, #68]	; b38 <synapses_initialise+0x218>
     af0:	fa000d49 	blx	401c <io_printf>
     af4:	e1a00008 	mov	r0, r8
     af8:	eaffffed 	b	ab4 <synapses_initialise+0x194>
     afc:	000054ec 	.word	0x000054ec
     b00:	000054f8 	.word	0x000054f8
     b04:	00400020 	.word	0x00400020
     b08:	000055c4 	.word	0x000055c4
     b0c:	00005578 	.word	0x00005578
     b10:	000055c8 	.word	0x000055c8
     b14:	000055cc 	.word	0x000055cc
     b18:	0000010f 	.word	0x0000010f
     b1c:	00000111 	.word	0x00000111
     b20:	00005608 	.word	0x00005608
     b24:	00005684 	.word	0x00005684
     b28:	000056c8 	.word	0x000056c8
     b2c:	00400030 	.word	0x00400030
     b30:	0000552c 	.word	0x0000552c
     b34:	00000117 	.word	0x00000117
     b38:	00005640 	.word	0x00005640

00000b3c <synapses_do_timestep_update>:
     b3c:	e92d4ff0 	push	{r4, r5, r6, r7, r8, r9, sl, fp, lr}
     b40:	e24dd024 	sub	sp, sp, #36	; 0x24
     b44:	e1a04000 	mov	r4, r0
     b48:	ebfffd96 	bl	1a8 <cpu_irq_disable>
     b4c:	e59fc108 	ldr	ip, [pc, #264]	; c5c <ETH_RX_SIZE+0x5c>
     b50:	e59c3000 	ldr	r3, [ip]
     b54:	e58d3008 	str	r3, [sp, #8]
     b58:	e3530000 	cmp	r3, #0
     b5c:	e58d001c 	str	r0, [sp, #28]
     b60:	0a00003a 	beq	c50 <ETH_RX_SIZE+0x50>
     b64:	e1a04484 	lsl	r4, r4, #9
     b68:	e2043c1e 	and	r3, r4, #7680	; 0x1e00
     b6c:	e1a01003 	mov	r1, r3
     b70:	e58d3010 	str	r3, [sp, #16]
     b74:	e59c3008 	ldr	r3, [ip, #8]
     b78:	e58d300c 	str	r3, [sp, #12]
     b7c:	e59c300c 	ldr	r3, [ip, #12]
     b80:	e3a02000 	mov	r2, #0
     b84:	e58d3018 	str	r3, [sp, #24]
     b88:	e59c3004 	ldr	r3, [ip, #4]
     b8c:	e3811c01 	orr	r1, r1, #256	; 0x100
     b90:	e1a0e002 	mov	lr, r2
     b94:	e58d1014 	str	r1, [sp, #20]
     b98:	e59d1010 	ldr	r1, [sp, #16]
     b9c:	e59d000c 	ldr	r0, [sp, #12]
     ba0:	e181a002 	orr	sl, r1, r2
     ba4:	e08ca08a 	add	sl, ip, sl, lsl #1
     ba8:	e1da41b0 	ldrh	r4, [sl, #16]
     bac:	e5931004 	ldr	r1, [r3, #4]
     bb0:	e1a04014 	lsl	r4, r4, r0
     bb4:	e593b010 	ldr	fp, [r3, #16]
     bb8:	e5930000 	ldr	r0, [r3]
     bbc:	e0898194 	umull	r8, r9, r4, r1
     bc0:	e087609b 	umull	r6, r7, fp, r0
     bc4:	e1a05fc4 	asr	r5, r4, #31
     bc8:	e0219195 	mla	r1, r5, r1, r9
     bcc:	e1a05fcb 	asr	r5, fp, #31
     bd0:	e0207095 	mla	r0, r5, r0, r7
     bd4:	e59d4014 	ldr	r4, [sp, #20]
     bd8:	e5936014 	ldr	r6, [r3, #20]
     bdc:	e5935008 	ldr	r5, [r3, #8]
     be0:	e1824004 	orr	r4, r2, r4
     be4:	e0811000 	add	r1, r1, r0
     be8:	e08c0084 	add	r0, ip, r4, lsl #1
     bec:	e5831010 	str	r1, [r3, #16]
     bf0:	e59d7018 	ldr	r7, [sp, #24]
     bf4:	e1cae1b0 	strh	lr, [sl, #16]
     bf8:	e08ba596 	umull	sl, fp, r6, r5
     bfc:	e1d041b0 	ldrh	r4, [r0, #16]
     c00:	e593100c 	ldr	r1, [r3, #12]
     c04:	e1a04714 	lsl	r4, r4, r7
     c08:	e1a07fc6 	asr	r7, r6, #31
     c0c:	e58d1004 	str	r1, [sp, #4]
     c10:	e0898194 	umull	r8, r9, r4, r1
     c14:	e021b795 	mla	r1, r5, r7, fp
     c18:	e1a05fc4 	asr	r5, r4, #31
     c1c:	e1a06001 	mov	r6, r1
     c20:	e59d1004 	ldr	r1, [sp, #4]
     c24:	e2822001 	add	r2, r2, #1
     c28:	e0219195 	mla	r1, r5, r1, r9
     c2c:	e2833018 	add	r3, r3, #24
     c30:	e1a05001 	mov	r5, r1
     c34:	e59d1008 	ldr	r1, [sp, #8]
     c38:	e0855006 	add	r5, r5, r6
     c3c:	e1520001 	cmp	r2, r1
     c40:	e5035004 	str	r5, [r3, #-4]
     c44:	e1c0e1b0 	strh	lr, [r0, #16]
     c48:	1affffd2 	bne	b98 <synapses_do_timestep_update+0x5c>
     c4c:	e59d001c 	ldr	r0, [sp, #28]
     c50:	e28dd024 	add	sp, sp, #36	; 0x24
     c54:	e8bd4ff0 	pop	{r4, r5, r6, r7, r8, r9, sl, fp, lr}
     c58:	eafffd5e 	b	1d8 <cpu_int_restore>
     c5c:	00400020 	.word	0x00400020

00000c60 <synapses_process_synaptic_row>:
     c60:	e92d47f0 	push	{r4, r5, r6, r7, r8, r9, sl, lr}
     c64:	e1a07001 	mov	r7, r1
     c68:	e5911000 	ldr	r1, [r1]
     c6c:	e1a04000 	mov	r4, r0
     c70:	e2815001 	add	r5, r1, #1
     c74:	e3510000 	cmp	r1, #0
     c78:	e0878105 	add	r8, r7, r5, lsl #2
     c7c:	0a00000a 	beq	cac <synapses_process_synaptic_row+0x4c>
     c80:	e1a06002 	mov	r6, r2
     c84:	e1a09003 	mov	r9, r3
     c88:	e59f20ac 	ldr	r2, [pc, #172]	; d3c <synapses_process_synaptic_row+0xdc>
     c8c:	e1a03000 	mov	r3, r0
     c90:	e1a01008 	mov	r1, r8
     c94:	e2870004 	add	r0, r7, #4
     c98:	eb0004f7 	bl	207c <synapse_dynamics_process_plastic_synapses>
     c9c:	e3500000 	cmp	r0, #0
     ca0:	08bd87f0 	popeq	{r4, r5, r6, r7, r8, r9, sl, pc}
     ca4:	e3560000 	cmp	r6, #0
     ca8:	1a000020 	bne	d30 <synapses_process_synaptic_row+0xd0>
     cac:	e59f608c 	ldr	r6, [pc, #140]	; d40 <synapses_process_synaptic_row+0xe0>
     cb0:	e7970105 	ldr	r0, [r7, r5, lsl #2]
     cb4:	e5963020 	ldr	r3, [r6, #32]
     cb8:	e3500000 	cmp	r0, #0
     cbc:	e0833000 	add	r3, r3, r0
     cc0:	e2881008 	add	r1, r8, #8
     cc4:	e5863020 	str	r3, [r6, #32]
     cc8:	0a000016 	beq	d28 <synapses_process_synaptic_row+0xc8>
     ccc:	e596c024 	ldr	ip, [r6, #36]	; 0x24
     cd0:	e59f506c 	ldr	r5, [pc, #108]	; d44 <synapses_process_synaptic_row+0xe4>
     cd4:	e59fe06c 	ldr	lr, [pc, #108]	; d48 <synapses_process_synaptic_row+0xe8>
     cd8:	e4912004 	ldr	r2, [r1], #4
     cdc:	e1a03982 	lsl	r3, r2, #19
     ce0:	e0843e23 	add	r3, r4, r3, lsr #28
     ce4:	e1a03483 	lsl	r3, r3, #9
     ce8:	e002700e 	and	r7, r2, lr
     cec:	e2033c1e 	and	r3, r3, #7680	; 0x1e00
     cf0:	e1833007 	orr	r3, r3, r7
     cf4:	e0853083 	add	r3, r5, r3, lsl #1
     cf8:	e1d371b0 	ldrh	r7, [r3, #16]
     cfc:	e0872822 	add	r2, r7, r2, lsr #16
     d00:	e2027801 	and	r7, r2, #65536	; 0x10000
     d04:	e3570000 	cmp	r7, #0
     d08:	13e02000 	mvnne	r2, #0
     d0c:	13a07001 	movne	r7, #1
     d10:	03a07000 	moveq	r7, #0
     d14:	e2500001 	subs	r0, r0, #1
     d18:	e1c321b0 	strh	r2, [r3, #16]
     d1c:	e08cc007 	add	ip, ip, r7
     d20:	1affffec 	bne	cd8 <synapses_process_synaptic_row+0x78>
     d24:	e586c024 	str	ip, [r6, #36]	; 0x24
     d28:	e3a00001 	mov	r0, #1
     d2c:	e8bd87f0 	pop	{r4, r5, r6, r7, r8, r9, sl, pc}
     d30:	e1a00009 	mov	r0, r9
     d34:	eb000352 	bl	1a84 <spike_processing_finish_write>
     d38:	eaffffdb 	b	cac <synapses_process_synaptic_row+0x4c>
     d3c:	00400030 	.word	0x00400030
     d40:	00404010 	.word	0x00404010
     d44:	00400020 	.word	0x00400020
     d48:	000001ff 	.word	0x000001ff

00000d4c <synapses_get_saturation_count>:
     d4c:	e59f3004 	ldr	r3, [pc, #4]	; d58 <synapses_get_saturation_count+0xc>
     d50:	e5930024 	ldr	r0, [r3, #36]	; 0x24
     d54:	e12fff1e 	bx	lr
     d58:	00404010 	.word	0x00404010

00000d5c <synapses_get_pre_synaptic_events>:
     d5c:	e92d4010 	push	{r4, lr}
     d60:	eb0004d2 	bl	20b0 <synapse_dynamics_get_plastic_pre_synaptic_events>
     d64:	e59f3008 	ldr	r3, [pc, #8]	; d74 <synapses_get_pre_synaptic_events+0x18>
     d68:	e5933020 	ldr	r3, [r3, #32]
     d6c:	e0800003 	add	r0, r0, r3
     d70:	e8bd8010 	pop	{r4, pc}
     d74:	00404010 	.word	0x00404010

00000d78 <recording_done_callback>:
     d78:	e59f200c 	ldr	r2, [pc, #12]	; d8c <recording_done_callback+0x14>
     d7c:	e5923000 	ldr	r3, [r2]
     d80:	e2433001 	sub	r3, r3, #1
     d84:	e5823000 	str	r3, [r2]
     d88:	e12fff1e 	bx	lr
     d8c:	00404038 	.word	0x00404038

00000d90 <_neuron_load_neuron_parameters>:
     d90:	e92d41f0 	push	{r4, r5, r6, r7, r8, lr}
     d94:	e59f70c0 	ldr	r7, [pc, #192]	; e5c <_neuron_load_neuron_parameters+0xcc>
     d98:	e59f50c0 	ldr	r5, [pc, #192]	; e60 <_neuron_load_neuron_parameters+0xd0>
     d9c:	e1a06000 	mov	r6, r0
     da0:	e1a02007 	mov	r2, r7
     da4:	e3a0307e 	mov	r3, #126	; 0x7e
     da8:	e59f10b4 	ldr	r1, [pc, #180]	; e64 <_neuron_load_neuron_parameters+0xd4>
     dac:	e3a00002 	mov	r0, #2
     db0:	fa000c99 	blx	401c <io_printf>
     db4:	e2861018 	add	r1, r6, #24
     db8:	e5950004 	ldr	r0, [r5, #4]
     dbc:	e3a02004 	mov	r2, #4
     dc0:	eb0010b0 	bl	5088 <memcpy>
     dc4:	e1a02007 	mov	r2, r7
     dc8:	e3a03082 	mov	r3, #130	; 0x82
     dcc:	e59f1094 	ldr	r1, [pc, #148]	; e68 <_neuron_load_neuron_parameters+0xd8>
     dd0:	e3a00002 	mov	r0, #2
     dd4:	fa000c90 	blx	401c <io_printf>
     dd8:	e5954008 	ldr	r4, [r5, #8]
     ddc:	e286101c 	add	r1, r6, #28
     de0:	e0844084 	add	r4, r4, r4, lsl #1
     de4:	e1a04104 	lsl	r4, r4, #2
     de8:	e1a02004 	mov	r2, r4
     dec:	e595000c 	ldr	r0, [r5, #12]
     df0:	eb0010a4 	bl	5088 <memcpy>
     df4:	e1a02007 	mov	r2, r7
     df8:	e3a03086 	mov	r3, #134	; 0x86
     dfc:	e59f1068 	ldr	r1, [pc, #104]	; e6c <_neuron_load_neuron_parameters+0xdc>
     e00:	e3a00002 	mov	r0, #2
     e04:	fa000c84 	blx	401c <io_printf>
     e08:	e1a02007 	mov	r2, r7
     e0c:	e3a0308a 	mov	r3, #138	; 0x8a
     e10:	e59f1058 	ldr	r1, [pc, #88]	; e70 <_neuron_load_neuron_parameters+0xe0>
     e14:	e3a00002 	mov	r0, #2
     e18:	fa000c7f 	blx	401c <io_printf>
     e1c:	e3a0308f 	mov	r3, #143	; 0x8f
     e20:	e1a02007 	mov	r2, r7
     e24:	e59f1048 	ldr	r1, [pc, #72]	; e74 <_neuron_load_neuron_parameters+0xe4>
     e28:	e3a00002 	mov	r0, #2
     e2c:	fa000c7a 	blx	401c <io_printf>
     e30:	e284401c 	add	r4, r4, #28
     e34:	e5952008 	ldr	r2, [r5, #8]
     e38:	e0864004 	add	r4, r6, r4
     e3c:	e1a01004 	mov	r1, r4
     e40:	e1a02102 	lsl	r2, r2, #2
     e44:	e5950010 	ldr	r0, [r5, #16]
     e48:	eb00108e 	bl	5088 <memcpy>
     e4c:	e5950004 	ldr	r0, [r5, #4]
     e50:	eb000469 	bl	1ffc <neuron_model_set_global_neuron_params>
     e54:	e3a00001 	mov	r0, #1
     e58:	e8bd81f0 	pop	{r4, r5, r6, r7, r8, pc}
     e5c:	0000570c 	.word	0x0000570c
     e60:	00404038 	.word	0x00404038
     e64:	00005718 	.word	0x00005718
     e68:	00005750 	.word	0x00005750
     e6c:	00005788 	.word	0x00005788
     e70:	000057bc 	.word	0x000057bc
     e74:	000057fc 	.word	0x000057fc

00000e78 <neuron_reload_neuron_parameters>:
     e78:	e92d4010 	push	{r4, lr}
     e7c:	e3a0309e 	mov	r3, #158	; 0x9e
     e80:	e1a04000 	mov	r4, r0
     e84:	e59f2014 	ldr	r2, [pc, #20]	; ea0 <neuron_reload_neuron_parameters+0x28>
     e88:	e3a00002 	mov	r0, #2
     e8c:	e59f1010 	ldr	r1, [pc, #16]	; ea4 <neuron_reload_neuron_parameters+0x2c>
     e90:	fa000c61 	blx	401c <io_printf>
     e94:	e1a00004 	mov	r0, r4
     e98:	e8bd4010 	pop	{r4, lr}
     e9c:	eaffffbb 	b	d90 <_neuron_load_neuron_parameters>
     ea0:	0000570c 	.word	0x0000570c
     ea4:	00005834 	.word	0x00005834

00000ea8 <neuron_initialise>:
     ea8:	e92d41f0 	push	{r4, r5, r6, r7, r8, lr}
     eac:	e1a05000 	mov	r5, r0
     eb0:	e24dd018 	sub	sp, sp, #24
     eb4:	e3a00002 	mov	r0, #2
     eb8:	e1a06001 	mov	r6, r1
     ebc:	e1a08002 	mov	r8, r2
     ec0:	e59f121c 	ldr	r1, [pc, #540]	; 10e4 <SV_SIZE+0xe4>
     ec4:	e59f221c 	ldr	r2, [pc, #540]	; 10e8 <SV_SIZE+0xe8>
     ec8:	e1a07003 	mov	r7, r3
     ecc:	e3a030b1 	mov	r3, #177	; 0xb1
     ed0:	fa000c51 	blx	401c <io_printf>
     ed4:	e59f2210 	ldr	r2, [pc, #528]	; 10ec <SV_SIZE+0xec>
     ed8:	e5953004 	ldr	r3, [r5, #4]
     edc:	e1d202b4 	ldrh	r0, [r2, #36]	; 0x24
     ee0:	e59f4208 	ldr	r4, [pc, #520]	; 10f0 <SV_SIZE+0xf0>
     ee4:	e0000093 	mul	r0, r3, r0
     ee8:	e595c000 	ldr	ip, [r5]
     eec:	e3a030b7 	mov	r3, #183	; 0xb7
     ef0:	e58d0004 	str	r0, [sp, #4]
     ef4:	e59f21ec 	ldr	r2, [pc, #492]	; 10e8 <SV_SIZE+0xe8>
     ef8:	e5840018 	str	r0, [r4, #24]
     efc:	e58dc000 	str	ip, [sp]
     f00:	e59f11ec 	ldr	r1, [pc, #492]	; 10f4 <SV_SIZE+0xf4>
     f04:	e3a00002 	mov	r0, #2
     f08:	e584c014 	str	ip, [r4, #20]
     f0c:	fa000c42 	blx	401c <io_printf>
     f10:	e5952008 	ldr	r2, [r5, #8]
     f14:	e595300c 	ldr	r3, [r5, #12]
     f18:	e3520000 	cmp	r2, #0
     f1c:	13a02001 	movne	r2, #1
     f20:	03a02000 	moveq	r2, #0
     f24:	e5c4201c 	strb	r2, [r4, #28]
     f28:	e5843020 	str	r3, [r4, #32]
     f2c:	1a000033 	bne	1000 <SV_SIZE>
     f30:	e3a030c1 	mov	r3, #193	; 0xc1
     f34:	e59f21ac 	ldr	r2, [pc, #428]	; 10e8 <SV_SIZE+0xe8>
     f38:	e59f11b8 	ldr	r1, [pc, #440]	; 10f8 <SV_SIZE+0xf8>
     f3c:	e3a00002 	mov	r0, #2
     f40:	fa000c35 	blx	401c <io_printf>
     f44:	e595c010 	ldr	ip, [r5, #16]
     f48:	e588c000 	str	ip, [r8]
     f4c:	e3a01000 	mov	r1, #0
     f50:	e5953014 	ldr	r3, [r5, #20]
     f54:	e3a08004 	mov	r8, #4
     f58:	e3a0200c 	mov	r2, #12
     f5c:	e58dc000 	str	ip, [sp]
     f60:	e3a00002 	mov	r0, #2
     f64:	e5873000 	str	r3, [r7]
     f68:	e58d3004 	str	r3, [sp, #4]
     f6c:	e58d100c 	str	r1, [sp, #12]
     f70:	e58d2008 	str	r2, [sp, #8]
     f74:	e3a030d3 	mov	r3, #211	; 0xd3
     f78:	e59f2168 	ldr	r2, [pc, #360]	; 10e8 <SV_SIZE+0xe8>
     f7c:	e59f1178 	ldr	r1, [pc, #376]	; 10fc <SV_SIZE+0xfc>
     f80:	e58d8010 	str	r8, [sp, #16]
     f84:	e584c008 	str	ip, [r4, #8]
     f88:	fa000c23 	blx	401c <io_printf>
     f8c:	e1a00008 	mov	r0, r8
     f90:	fa000ede 	blx	4b10 <spin1_malloc>
     f94:	e3500000 	cmp	r0, #0
     f98:	e1a0c000 	mov	ip, r0
     f9c:	e5840004 	str	r0, [r4, #4]
     fa0:	0a000038 	beq	1088 <SV_SIZE+0x88>
     fa4:	e5940008 	ldr	r0, [r4, #8]
     fa8:	e0800080 	add	r0, r0, r0, lsl #1
     fac:	e1a00100 	lsl	r0, r0, #2
     fb0:	fa000ed6 	blx	4b10 <spin1_malloc>
     fb4:	e3500000 	cmp	r0, #0
     fb8:	e1a0c000 	mov	ip, r0
     fbc:	e584000c 	str	r0, [r4, #12]
     fc0:	0a000039 	beq	10ac <SV_SIZE+0xac>
     fc4:	e5940008 	ldr	r0, [r4, #8]
     fc8:	e1a00100 	lsl	r0, r0, #2
     fcc:	fa000ecf 	blx	4b10 <spin1_malloc>
     fd0:	e3500000 	cmp	r0, #0
     fd4:	e1a0c000 	mov	ip, r0
     fd8:	e5840010 	str	r0, [r4, #16]
     fdc:	0a000039 	beq	10c8 <SV_SIZE+0xc8>
     fe0:	e1a00005 	mov	r0, r5
     fe4:	ebffff69 	bl	d90 <_neuron_load_neuron_parameters>
     fe8:	e3500000 	cmp	r0, #0
     fec:	1a00000a 	bne	101c <SV_SIZE+0x1c>
     ff0:	e3a05000 	mov	r5, #0
     ff4:	e1a00005 	mov	r0, r5
     ff8:	e28dd018 	add	sp, sp, #24
     ffc:	e8bd81f0 	pop	{r4, r5, r6, r7, r8, pc}
    1000:	e58d3000 	str	r3, [sp]
    1004:	e59f20dc 	ldr	r2, [pc, #220]	; 10e8 <SV_SIZE+0xe8>
    1008:	e3a030c4 	mov	r3, #196	; 0xc4
    100c:	e59f10ec 	ldr	r1, [pc, #236]	; 1100 <SV_SIZE+0x100>
    1010:	e3a00002 	mov	r0, #2
    1014:	fa000c00 	blx	401c <io_printf>
    1018:	eaffffc9 	b	f44 <RTR_TST2+0x40>
    101c:	e5940008 	ldr	r0, [r4, #8]
    1020:	ebfffcf4 	bl	3f8 <out_spikes_initialize>
    1024:	e2505000 	subs	r5, r0, #0
    1028:	0afffff0 	beq	ff0 <RTR_TST2+0xec>
    102c:	e5943008 	ldr	r3, [r4, #8]
    1030:	e59f20cc 	ldr	r2, [pc, #204]	; 1104 <SV_SIZE+0x104>
    1034:	e2833001 	add	r3, r3, #1
    1038:	e1a03103 	lsl	r3, r3, #2
    103c:	e1a00003 	mov	r0, r3
    1040:	e5823000 	str	r3, [r2]
    1044:	e5846024 	str	r6, [r4, #36]	; 0x24
    1048:	fa000eb0 	blx	4b10 <spin1_malloc>
    104c:	e5943008 	ldr	r3, [r4, #8]
    1050:	e59f60b0 	ldr	r6, [pc, #176]	; 1108 <SV_SIZE+0x108>
    1054:	e2833001 	add	r3, r3, #1
    1058:	e1a03103 	lsl	r3, r3, #2
    105c:	e5863000 	str	r3, [r6]
    1060:	e5840028 	str	r0, [r4, #40]	; 0x28
    1064:	e1a00003 	mov	r0, r3
    1068:	fa000ea8 	blx	4b10 <spin1_malloc>
    106c:	e584002c 	str	r0, [r4, #44]	; 0x2c
    1070:	e5960000 	ldr	r0, [r6]
    1074:	fa000ea5 	blx	4b10 <spin1_malloc>
    1078:	e5840030 	str	r0, [r4, #48]	; 0x30
    107c:	e1a00005 	mov	r0, r5
    1080:	e28dd018 	add	sp, sp, #24
    1084:	e8bd81f0 	pop	{r4, r5, r6, r7, r8, pc}
    1088:	e3a030db 	mov	r3, #219	; 0xdb
    108c:	e59f2054 	ldr	r2, [pc, #84]	; 10e8 <SV_SIZE+0xe8>
    1090:	e59f1074 	ldr	r1, [pc, #116]	; 110c <SV_SIZE+0x10c>
    1094:	e3a00002 	mov	r0, #2
    1098:	e1a0500c 	mov	r5, ip
    109c:	fa000bde 	blx	401c <io_printf>
    10a0:	e1a00005 	mov	r0, r5
    10a4:	e28dd018 	add	sp, sp, #24
    10a8:	e8bd81f0 	pop	{r4, r5, r6, r7, r8, pc}
    10ac:	e3a030e4 	mov	r3, #228	; 0xe4
    10b0:	e59f2030 	ldr	r2, [pc, #48]	; 10e8 <SV_SIZE+0xe8>
    10b4:	e59f1054 	ldr	r1, [pc, #84]	; 1110 <SV_SIZE+0x110>
    10b8:	e3a00002 	mov	r0, #2
    10bc:	e1a0500c 	mov	r5, ip
    10c0:	fa000bd5 	blx	401c <io_printf>
    10c4:	eaffffca 	b	ff4 <RTR_TST2+0xf0>
    10c8:	e59f3044 	ldr	r3, [pc, #68]	; 1114 <SV_SIZE+0x114>
    10cc:	e59f2014 	ldr	r2, [pc, #20]	; 10e8 <SV_SIZE+0xe8>
    10d0:	e59f1040 	ldr	r1, [pc, #64]	; 1118 <SV_SIZE+0x118>
    10d4:	e3a00002 	mov	r0, #2
    10d8:	e1a0500c 	mov	r5, ip
    10dc:	fa000bce 	blx	401c <io_printf>
    10e0:	eaffffc3 	b	ff4 <RTR_TST2+0xf0>
    10e4:	00005878 	.word	0x00005878
    10e8:	0000570c 	.word	0x0000570c
    10ec:	e5007f00 	.word	0xe5007f00
    10f0:	00404038 	.word	0x00404038
    10f4:	000058ac 	.word	0x000058ac
    10f8:	000058ec 	.word	0x000058ec
    10fc:	00005988 	.word	0x00005988
    1100:	0000593c 	.word	0x0000593c
    1104:	00404600 	.word	0x00404600
    1108:	00404604 	.word	0x00404604
    110c:	00005a00 	.word	0x00005a00
    1110:	00005a50 	.word	0x00005a50
    1114:	00000103 	.word	0x00000103
    1118:	00005a94 	.word	0x00005a94

0000111c <neuron_store_neuron_parameters>:
    111c:	e92d41f0 	push	{r4, r5, r6, r7, r8, lr}
    1120:	e59f70b4 	ldr	r7, [pc, #180]	; 11dc <neuron_store_neuron_parameters+0xc0>
    1124:	e59f50b4 	ldr	r5, [pc, #180]	; 11e0 <neuron_store_neuron_parameters+0xc4>
    1128:	e1a06000 	mov	r6, r0
    112c:	e1a02007 	mov	r2, r7
    1130:	e59f30ac 	ldr	r3, [pc, #172]	; 11e4 <neuron_store_neuron_parameters+0xc8>
    1134:	e59f10ac 	ldr	r1, [pc, #172]	; 11e8 <neuron_store_neuron_parameters+0xcc>
    1138:	e3a00002 	mov	r0, #2
    113c:	fa000bb6 	blx	401c <io_printf>
    1140:	e5951004 	ldr	r1, [r5, #4]
    1144:	e2860018 	add	r0, r6, #24
    1148:	e3a02004 	mov	r2, #4
    114c:	eb000fcd 	bl	5088 <memcpy>
    1150:	e1a02007 	mov	r2, r7
    1154:	e59f3090 	ldr	r3, [pc, #144]	; 11ec <neuron_store_neuron_parameters+0xd0>
    1158:	e59f1090 	ldr	r1, [pc, #144]	; 11f0 <neuron_store_neuron_parameters+0xd4>
    115c:	e3a00002 	mov	r0, #2
    1160:	fa000bad 	blx	401c <io_printf>
    1164:	e5954008 	ldr	r4, [r5, #8]
    1168:	e595100c 	ldr	r1, [r5, #12]
    116c:	e0844084 	add	r4, r4, r4, lsl #1
    1170:	e1a04104 	lsl	r4, r4, #2
    1174:	e1a02004 	mov	r2, r4
    1178:	e286001c 	add	r0, r6, #28
    117c:	eb000fc1 	bl	5088 <memcpy>
    1180:	e1a02007 	mov	r2, r7
    1184:	e59f3068 	ldr	r3, [pc, #104]	; 11f4 <neuron_store_neuron_parameters+0xd8>
    1188:	e59f1068 	ldr	r1, [pc, #104]	; 11f8 <neuron_store_neuron_parameters+0xdc>
    118c:	e3a00002 	mov	r0, #2
    1190:	fa000ba1 	blx	401c <io_printf>
    1194:	e1a02007 	mov	r2, r7
    1198:	e59f305c 	ldr	r3, [pc, #92]	; 11fc <neuron_store_neuron_parameters+0xe0>
    119c:	e59f105c 	ldr	r1, [pc, #92]	; 1200 <neuron_store_neuron_parameters+0xe4>
    11a0:	e3a00002 	mov	r0, #2
    11a4:	fa000b9c 	blx	401c <io_printf>
    11a8:	e1a02007 	mov	r2, r7
    11ac:	e59f1050 	ldr	r1, [pc, #80]	; 1204 <neuron_store_neuron_parameters+0xe8>
    11b0:	e3a00002 	mov	r0, #2
    11b4:	e59f304c 	ldr	r3, [pc, #76]	; 1208 <neuron_store_neuron_parameters+0xec>
    11b8:	fa000b97 	blx	401c <io_printf>
    11bc:	e284401c 	add	r4, r4, #28
    11c0:	e5952008 	ldr	r2, [r5, #8]
    11c4:	e0864004 	add	r4, r6, r4
    11c8:	e1a00004 	mov	r0, r4
    11cc:	e5951010 	ldr	r1, [r5, #16]
    11d0:	e1a02102 	lsl	r2, r2, #2
    11d4:	e8bd41f0 	pop	{r4, r5, r6, r7, r8, lr}
    11d8:	ea000faa 	b	5088 <memcpy>
    11dc:	0000570c 	.word	0x0000570c
    11e0:	00404038 	.word	0x00404038
    11e4:	00000126 	.word	0x00000126
    11e8:	00005ae0 	.word	0x00005ae0
    11ec:	0000012a 	.word	0x0000012a
    11f0:	00005b18 	.word	0x00005b18
    11f4:	0000012e 	.word	0x0000012e
    11f8:	00005b50 	.word	0x00005b50
    11fc:	00000132 	.word	0x00000132
    1200:	00005b84 	.word	0x00005b84
    1204:	00005bc4 	.word	0x00005bc4
    1208:	00000137 	.word	0x00000137

0000120c <neuron_set_neuron_synapse_shaping_params>:
    120c:	e59f3004 	ldr	r3, [pc, #4]	; 1218 <neuron_set_neuron_synapse_shaping_params+0xc>
    1210:	e5830034 	str	r0, [r3, #52]	; 0x34
    1214:	e12fff1e 	bx	lr
    1218:	00404038 	.word	0x00404038

0000121c <neuron_do_timestep_update>:
    121c:	e92d4ff0 	push	{r4, r5, r6, r7, r8, r9, sl, fp, lr}
    1220:	e59f429c 	ldr	r4, [pc, #668]	; 14c4 <neuron_do_timestep_update+0x2a8>
    1224:	e3a02421 	mov	r2, #553648128	; 0x21000000
    1228:	e5921004 	ldr	r1, [r2, #4]
    122c:	e5943014 	ldr	r3, [r4, #20]
    1230:	e24dd00c 	sub	sp, sp, #12
    1234:	e0411003 	sub	r1, r1, r3
    1238:	e58d0004 	str	r0, [sp, #4]
    123c:	e5923004 	ldr	r3, [r2, #4]
    1240:	e1510003 	cmp	r1, r3
    1244:	3afffffc 	bcc	123c <neuron_do_timestep_update+0x20>
    1248:	e5923004 	ldr	r3, [r2, #4]
    124c:	e5941018 	ldr	r1, [r4, #24]
    1250:	e5942000 	ldr	r2, [r4]
    1254:	e0433001 	sub	r3, r3, r1
    1258:	e3520000 	cmp	r2, #0
    125c:	e5843038 	str	r3, [r4, #56]	; 0x38
    1260:	0a000003 	beq	1274 <neuron_do_timestep_update+0x58>
    1264:	ebfffbdd 	bl	1e0 <cpu_wfi>
    1268:	e5943000 	ldr	r3, [r4]
    126c:	e3530000 	cmp	r3, #0
    1270:	1afffffb 	bne	1264 <neuron_do_timestep_update+0x48>
    1274:	ebfffc54 	bl	3cc <out_spikes_reset>
    1278:	e5943008 	ldr	r3, [r4, #8]
    127c:	e3530000 	cmp	r3, #0
    1280:	13a08000 	movne	r8, #0
    1284:	11a06008 	movne	r6, r8
    1288:	11a09008 	movne	r9, r8
    128c:	1a000005 	bne	12a8 <neuron_do_timestep_update+0x8c>
    1290:	ea000047 	b	13b4 <neuron_do_timestep_update+0x198>
    1294:	e5943008 	ldr	r3, [r4, #8]
    1298:	e2866001 	add	r6, r6, #1
    129c:	e1530006 	cmp	r3, r6
    12a0:	e288800c 	add	r8, r8, #12
    12a4:	9a000042 	bls	13b4 <neuron_do_timestep_update+0x198>
    12a8:	e594700c 	ldr	r7, [r4, #12]
    12ac:	e594a010 	ldr	sl, [r4, #16]
    12b0:	e0877008 	add	r7, r7, r8
    12b4:	e1a00007 	mov	r0, r7
    12b8:	eb000365 	bl	2054 <neuron_model_get_membrane_voltage>
    12bc:	e5943028 	ldr	r3, [r4, #40]	; 0x28
    12c0:	e5942034 	ldr	r2, [r4, #52]	; 0x34
    12c4:	e1a05106 	lsl	r5, r6, #2
    12c8:	e0822088 	add	r2, r2, r8, lsl #1
    12cc:	e0833005 	add	r3, r3, r5
    12d0:	e1a01006 	mov	r1, r6
    12d4:	e5830004 	str	r0, [r3, #4]
    12d8:	e59d0004 	ldr	r0, [sp, #4]
    12dc:	e5923010 	ldr	r3, [r2, #16]
    12e0:	e592b014 	ldr	fp, [r2, #20]
    12e4:	e58d3000 	str	r3, [sp]
    12e8:	eb00036d 	bl	20a4 <synapse_dynamics_get_intrinsic_bias>
    12ec:	e594302c 	ldr	r3, [r4, #44]	; 0x2c
    12f0:	e594c030 	ldr	ip, [r4, #48]	; 0x30
    12f4:	e59de000 	ldr	lr, [sp]
    12f8:	e0833005 	add	r3, r3, r5
    12fc:	e08c5005 	add	r5, ip, r5
    1300:	e583e004 	str	lr, [r3, #4]
    1304:	e1a0100b 	mov	r1, fp
    1308:	e1a03007 	mov	r3, r7
    130c:	e585b004 	str	fp, [r5, #4]
    1310:	e0802009 	add	r2, r0, r9
    1314:	e1a0000e 	mov	r0, lr
    1318:	eb000338 	bl	2000 <neuron_model_state_update>
    131c:	e79a3106 	ldr	r3, [sl, r6, lsl #2]
    1320:	e1530000 	cmp	r3, r0
    1324:	caffffda 	bgt	1294 <neuron_do_timestep_update+0x78>
    1328:	e1a00007 	mov	r0, r7
    132c:	eb00034a 	bl	205c <neuron_model_has_spiked>
    1330:	e1a01006 	mov	r1, r6
    1334:	e59d0004 	ldr	r0, [sp, #4]
    1338:	eb00034e 	bl	2078 <synapse_dynamics_process_post_synaptic_event>
    133c:	e59f3184 	ldr	r3, [pc, #388]	; 14c8 <neuron_do_timestep_update+0x2ac>
    1340:	e1a002a6 	lsr	r0, r6, #5
    1344:	e5931000 	ldr	r1, [r3]
    1348:	e5d4c01c 	ldrb	ip, [r4, #28]
    134c:	e7912100 	ldr	r2, [r1, r0, lsl #2]
    1350:	e206301f 	and	r3, r6, #31
    1354:	e3a0e001 	mov	lr, #1
    1358:	e182331e 	orr	r3, r2, lr, lsl r3
    135c:	e35c0000 	cmp	ip, #0
    1360:	e7813100 	str	r3, [r1, r0, lsl #2]
    1364:	0affffca 	beq	1294 <neuron_do_timestep_update+0x78>
    1368:	e5942038 	ldr	r2, [r4, #56]	; 0x38
    136c:	e3a03421 	mov	r3, #553648128	; 0x21000000
    1370:	e5933004 	ldr	r3, [r3, #4]
    1374:	e1530002 	cmp	r3, r2
    1378:	8afffffb 	bhi	136c <neuron_do_timestep_update+0x150>
    137c:	e5943018 	ldr	r3, [r4, #24]
    1380:	e0422003 	sub	r2, r2, r3
    1384:	e5842038 	str	r2, [r4, #56]	; 0x38
    1388:	ea000000 	b	1390 <neuron_do_timestep_update+0x174>
    138c:	fa000d64 	blx	4924 <spin1_delay_us>
    1390:	e5940020 	ldr	r0, [r4, #32]
    1394:	e1a02009 	mov	r2, r9
    1398:	e1860000 	orr	r0, r6, r0
    139c:	e3a01000 	mov	r1, #0
    13a0:	fa000dd0 	blx	4ae8 <spin1_send_mc_packet>
    13a4:	e3500000 	cmp	r0, #0
    13a8:	e3a00001 	mov	r0, #1
    13ac:	0afffff6 	beq	138c <neuron_do_timestep_update+0x170>
    13b0:	eaffffb7 	b	1294 <neuron_do_timestep_update+0x78>
    13b4:	ebfffb83 	bl	1c8 <cpu_int_disable>
    13b8:	e5943024 	ldr	r3, [r4, #36]	; 0x24
    13bc:	e3130002 	tst	r3, #2
    13c0:	e1a05000 	mov	r5, r0
    13c4:	1a000031 	bne	1490 <neuron_do_timestep_update+0x274>
    13c8:	e3130004 	tst	r3, #4
    13cc:	1a000022 	bne	145c <neuron_do_timestep_update+0x240>
    13d0:	e3130008 	tst	r3, #8
    13d4:	1a000014 	bne	142c <neuron_do_timestep_update+0x210>
    13d8:	ebfffc69 	bl	584 <out_spikes_print>
    13dc:	e5943024 	ldr	r3, [r4, #36]	; 0x24
    13e0:	e3130001 	tst	r3, #1
    13e4:	1a000003 	bne	13f8 <neuron_do_timestep_update+0x1dc>
    13e8:	e1a00005 	mov	r0, r5
    13ec:	e28dd00c 	add	sp, sp, #12
    13f0:	e8bd4ff0 	pop	{r4, r5, r6, r7, r8, r9, sl, fp, lr}
    13f4:	eafffb77 	b	1d8 <cpu_int_restore>
    13f8:	ebfffc35 	bl	4d4 <out_spikes_is_empty>
    13fc:	e3500000 	cmp	r0, #0
    1400:	1afffff8 	bne	13e8 <neuron_do_timestep_update+0x1cc>
    1404:	e5943000 	ldr	r3, [r4]
    1408:	e59d1004 	ldr	r1, [sp, #4]
    140c:	e2833001 	add	r3, r3, #1
    1410:	e59f20b4 	ldr	r2, [pc, #180]	; 14cc <neuron_do_timestep_update+0x2b0>
    1414:	e5843000 	str	r3, [r4]
    1418:	ebfffc24 	bl	4b0 <out_spikes_record>
    141c:	e1a00005 	mov	r0, r5
    1420:	e28dd00c 	add	sp, sp, #12
    1424:	e8bd4ff0 	pop	{r4, r5, r6, r7, r8, r9, sl, fp, lr}
    1428:	eafffb6a 	b	1d8 <cpu_int_restore>
    142c:	e594c000 	ldr	ip, [r4]
    1430:	e5941030 	ldr	r1, [r4, #48]	; 0x30
    1434:	e59f3094 	ldr	r3, [pc, #148]	; 14d0 <neuron_do_timestep_update+0x2b4>
    1438:	e59d2004 	ldr	r2, [sp, #4]
    143c:	e28cc001 	add	ip, ip, #1
    1440:	e5812000 	str	r2, [r1]
    1444:	e3a00003 	mov	r0, #3
    1448:	e5932000 	ldr	r2, [r3]
    144c:	e59f3078 	ldr	r3, [pc, #120]	; 14cc <neuron_do_timestep_update+0x2b0>
    1450:	e584c000 	str	ip, [r4]
    1454:	eb00052d 	bl	2910 <recording_record_and_notify>
    1458:	eaffffde 	b	13d8 <neuron_do_timestep_update+0x1bc>
    145c:	e594c000 	ldr	ip, [r4]
    1460:	e594102c 	ldr	r1, [r4, #44]	; 0x2c
    1464:	e59f3064 	ldr	r3, [pc, #100]	; 14d0 <neuron_do_timestep_update+0x2b4>
    1468:	e59d2004 	ldr	r2, [sp, #4]
    146c:	e28cc001 	add	ip, ip, #1
    1470:	e5812000 	str	r2, [r1]
    1474:	e3a00002 	mov	r0, #2
    1478:	e5932000 	ldr	r2, [r3]
    147c:	e59f3048 	ldr	r3, [pc, #72]	; 14cc <neuron_do_timestep_update+0x2b0>
    1480:	e584c000 	str	ip, [r4]
    1484:	eb000521 	bl	2910 <recording_record_and_notify>
    1488:	e5943024 	ldr	r3, [r4, #36]	; 0x24
    148c:	eaffffcf 	b	13d0 <neuron_do_timestep_update+0x1b4>
    1490:	e594c000 	ldr	ip, [r4]
    1494:	e5941028 	ldr	r1, [r4, #40]	; 0x28
    1498:	e59f3034 	ldr	r3, [pc, #52]	; 14d4 <neuron_do_timestep_update+0x2b8>
    149c:	e59d2004 	ldr	r2, [sp, #4]
    14a0:	e28cc001 	add	ip, ip, #1
    14a4:	e5812000 	str	r2, [r1]
    14a8:	e3a00001 	mov	r0, #1
    14ac:	e5932000 	ldr	r2, [r3]
    14b0:	e59f3014 	ldr	r3, [pc, #20]	; 14cc <neuron_do_timestep_update+0x2b0>
    14b4:	e584c000 	str	ip, [r4]
    14b8:	eb000514 	bl	2910 <recording_record_and_notify>
    14bc:	e5943024 	ldr	r3, [r4, #36]	; 0x24
    14c0:	eaffffc0 	b	13c8 <neuron_do_timestep_update+0x1ac>
    14c4:	00404038 	.word	0x00404038
    14c8:	004045f8 	.word	0x004045f8
    14cc:	00000d78 	.word	0x00000d78
    14d0:	00404604 	.word	0x00404604
    14d4:	00404600 	.word	0x00404600

000014d8 <_multicast_packet_received_callback>:
    14d8:	e92d4010 	push	{r4, lr}
    14dc:	e59f4034 	ldr	r4, [pc, #52]	; 1518 <_multicast_packet_received_callback+0x40>
    14e0:	e1a01000 	mov	r1, r0
    14e4:	e5940000 	ldr	r0, [r4]
    14e8:	eb0007d1 	bl	3434 <circular_buffer_add>
    14ec:	e3500000 	cmp	r0, #0
    14f0:	08bd8010 	popeq	{r4, pc}
    14f4:	e5d41004 	ldrb	r1, [r4, #4]
    14f8:	e3510000 	cmp	r1, #0
    14fc:	18bd8010 	popne	{r4, pc}
    1500:	e1a00001 	mov	r0, r1
    1504:	fa000da8 	blx	4bac <spin1_trigger_user_event>
    1508:	e3500000 	cmp	r0, #0
    150c:	13a03001 	movne	r3, #1
    1510:	15c43004 	strbne	r3, [r4, #4]
    1514:	e8bd8010 	pop	{r4, pc}
    1518:	00404074 	.word	0x00404074

0000151c <_dma_complete_callback>:
    151c:	e92d4ff0 	push	{r4, r5, r6, r7, r8, r9, sl, fp, lr}
    1520:	e59f4274 	ldr	r4, [pc, #628]	; 179c <_dma_complete_callback+0x280>
    1524:	e59f7274 	ldr	r7, [pc, #628]	; 17a0 <_dma_complete_callback+0x284>
    1528:	e24dd024 	sub	sp, sp, #36	; 0x24
    152c:	e5943008 	ldr	r3, [r4, #8]
    1530:	e284600c 	add	r6, r4, #12
    1534:	e3a05000 	mov	r5, #0
    1538:	e58d3014 	str	r3, [sp, #20]
    153c:	e28d101c 	add	r1, sp, #28
    1540:	e28d0018 	add	r0, sp, #24
    1544:	eb000279 	bl	1f30 <population_table_get_next_address>
    1548:	e1a03005 	mov	r3, r5
    154c:	e1a01006 	mov	r1, r6
    1550:	e3500000 	cmp	r0, #0
    1554:	0a000056 	beq	16b4 <_dma_complete_callback+0x198>
    1558:	e59dc01c 	ldr	ip, [sp, #28]
    155c:	e35c0000 	cmp	ip, #0
    1560:	e1a0200c 	mov	r2, ip
    1564:	1a000005 	bne	1580 <_dma_complete_callback+0x64>
    1568:	e59dc018 	ldr	ip, [sp, #24]
    156c:	e5970000 	ldr	r0, [r7]
    1570:	e59cc000 	ldr	ip, [ip]
    1574:	e584c018 	str	ip, [r4, #24]
    1578:	ebfffdb8 	bl	c60 <synapses_process_synaptic_row>
    157c:	eaffffee 	b	153c <_dma_complete_callback+0x20>
    1580:	e594601c 	ldr	r6, [r4, #28]
    1584:	e59d5018 	ldr	r5, [sp, #24]
    1588:	e084e206 	add	lr, r4, r6, lsl #4
    158c:	e3a03000 	mov	r3, #0
    1590:	e5948040 	ldr	r8, [r4, #64]	; 0x40
    1594:	e59e202c 	ldr	r2, [lr, #44]	; 0x2c
    1598:	e1a01005 	mov	r1, r5
    159c:	e58dc000 	str	ip, [sp]
    15a0:	e1a00003 	mov	r0, r3
    15a4:	e58ec028 	str	ip, [lr, #40]	; 0x28
    15a8:	e58e8024 	str	r8, [lr, #36]	; 0x24
    15ac:	e58e5020 	str	r5, [lr, #32]
    15b0:	e5846008 	str	r6, [r4, #8]
    15b4:	fa000cdc 	blx	492c <spin1_dma_transfer>
    15b8:	e594301c 	ldr	r3, [r4, #28]
    15bc:	e2833001 	add	r3, r3, #1
    15c0:	e2033001 	and	r3, r3, #1
    15c4:	e584301c 	str	r3, [r4, #28]
    15c8:	ebfffafe 	bl	1c8 <cpu_int_disable>
    15cc:	ebfffafd 	bl	1c8 <cpu_int_disable>
    15d0:	ebfffb00 	bl	1d8 <cpu_int_restore>
    15d4:	e59d3014 	ldr	r3, [sp, #20]
    15d8:	e59f91c4 	ldr	r9, [pc, #452]	; 17a4 <_dma_complete_callback+0x288>
    15dc:	e59fb1c4 	ldr	fp, [pc, #452]	; 17a8 <_dma_complete_callback+0x28c>
    15e0:	e0846203 	add	r6, r4, r3, lsl #4
    15e4:	e3a08002 	mov	r8, #2
    15e8:	ea000002 	b	15f8 <_dma_complete_callback+0xdc>
    15ec:	e59d3010 	ldr	r3, [sp, #16]
    15f0:	e3530000 	cmp	r3, #0
    15f4:	0a00002c 	beq	16ac <_dma_complete_callback+0x190>
    15f8:	e5961024 	ldr	r1, [r6, #36]	; 0x24
    15fc:	e5940000 	ldr	r0, [r4]
    1600:	eb0007af 	bl	34c4 <circular_buffer_advance_if_next_equals>
    1604:	e59d3014 	ldr	r3, [sp, #20]
    1608:	e596102c 	ldr	r1, [r6, #44]	; 0x2c
    160c:	e2202001 	eor	r2, r0, #1
    1610:	e58d0010 	str	r0, [sp, #16]
    1614:	e20220ff 	and	r2, r2, #255	; 0xff
    1618:	e5970000 	ldr	r0, [r7]
    161c:	ebfffd8f 	bl	c60 <synapses_process_synaptic_row>
    1620:	e2505000 	subs	r5, r0, #0
    1624:	1afffff0 	bne	15ec <_dma_complete_callback+0xd0>
    1628:	e596102c 	ldr	r1, [r6, #44]	; 0x2c
    162c:	e5962020 	ldr	r2, [r6, #32]
    1630:	e5963024 	ldr	r3, [r6, #36]	; 0x24
    1634:	e58d3000 	str	r3, [sp]
    1638:	e58d1008 	str	r1, [sp, #8]
    163c:	e58d2004 	str	r2, [sp, #4]
    1640:	e3a030e4 	mov	r3, #228	; 0xe4
    1644:	e1a02009 	mov	r2, r9
    1648:	e59f115c 	ldr	r1, [pc, #348]	; 17ac <_dma_complete_callback+0x290>
    164c:	e1a00008 	mov	r0, r8
    1650:	fa000a71 	blx	401c <io_printf>
    1654:	e5963028 	ldr	r3, [r6, #40]	; 0x28
    1658:	e1b03123 	lsrs	r3, r3, #2
    165c:	13a0a0e9 	movne	sl, #233	; 0xe9
    1660:	0a00000c 	beq	1698 <_dma_complete_callback+0x17c>
    1664:	e596202c 	ldr	r2, [r6, #44]	; 0x2c
    1668:	e1a0300a 	mov	r3, sl
    166c:	e7922105 	ldr	r2, [r2, r5, lsl #2]
    1670:	e58d2004 	str	r2, [sp, #4]
    1674:	e58d5000 	str	r5, [sp]
    1678:	e1a02009 	mov	r2, r9
    167c:	e1a0100b 	mov	r1, fp
    1680:	e1a00008 	mov	r0, r8
    1684:	fa000a64 	blx	401c <io_printf>
    1688:	e5963028 	ldr	r3, [r6, #40]	; 0x28
    168c:	e2855001 	add	r5, r5, #1
    1690:	e1550123 	cmp	r5, r3, lsr #2
    1694:	3afffff2 	bcc	1664 <_dma_complete_callback+0x148>
    1698:	e3a0000d 	mov	r0, #13
    169c:	ebfffaa2 	bl	12c <rt_error>
    16a0:	e59d3010 	ldr	r3, [sp, #16]
    16a4:	e3530000 	cmp	r3, #0
    16a8:	1affffd2 	bne	15f8 <_dma_complete_callback+0xdc>
    16ac:	e28dd024 	add	sp, sp, #36	; 0x24
    16b0:	e8bd8ff0 	pop	{r4, r5, r6, r7, r8, r9, sl, fp, pc}
    16b4:	e1a06000 	mov	r6, r0
    16b8:	ebfffac2 	bl	1c8 <cpu_int_disable>
    16bc:	e59f80ec 	ldr	r8, [pc, #236]	; 17b0 <_dma_complete_callback+0x294>
    16c0:	e2489034 	sub	r9, r8, #52	; 0x34
    16c4:	e1a0a000 	mov	sl, r0
    16c8:	e1a01008 	mov	r1, r8
    16cc:	e5940000 	ldr	r0, [r4]
    16d0:	eb00076c 	bl	3488 <circular_buffer_get_next>
    16d4:	e2505000 	subs	r5, r0, #0
    16d8:	e1a0000a 	mov	r0, sl
    16dc:	0a00002a 	beq	178c <_dma_complete_callback+0x270>
    16e0:	ebfffabc 	bl	1d8 <cpu_int_restore>
    16e4:	e28d201c 	add	r2, sp, #28
    16e8:	e28d1018 	add	r1, sp, #24
    16ec:	e5940040 	ldr	r0, [r4, #64]	; 0x40
    16f0:	eb0001b4 	bl	1dc8 <population_table_get_first_address>
    16f4:	e2505000 	subs	r5, r0, #0
    16f8:	0a00000d 	beq	1734 <_dma_complete_callback+0x218>
    16fc:	e59dc01c 	ldr	ip, [sp, #28]
    1700:	e1a03006 	mov	r3, r6
    1704:	e35c0000 	cmp	ip, #0
    1708:	e1a0200c 	mov	r2, ip
    170c:	e1a01009 	mov	r1, r9
    1710:	1a00000a 	bne	1740 <_dma_complete_callback+0x224>
    1714:	e59dc018 	ldr	ip, [sp, #24]
    1718:	e5970000 	ldr	r0, [r7]
    171c:	e59cc000 	ldr	ip, [ip]
    1720:	e584c018 	str	ip, [r4, #24]
    1724:	ebfffd4d 	bl	c60 <synapses_process_synaptic_row>
    1728:	ebfffaa6 	bl	1c8 <cpu_int_disable>
    172c:	e1a0a000 	mov	sl, r0
    1730:	eaffffe4 	b	16c8 <_dma_complete_callback+0x1ac>
    1734:	ebfffaa3 	bl	1c8 <cpu_int_disable>
    1738:	e1a0a000 	mov	sl, r0
    173c:	eaffffe1 	b	16c8 <_dma_complete_callback+0x1ac>
    1740:	e594801c 	ldr	r8, [r4, #28]
    1744:	e59d6018 	ldr	r6, [sp, #24]
    1748:	e084e208 	add	lr, r4, r8, lsl #4
    174c:	e3a03000 	mov	r3, #0
    1750:	e5949040 	ldr	r9, [r4, #64]	; 0x40
    1754:	e59e202c 	ldr	r2, [lr, #44]	; 0x2c
    1758:	e1a00003 	mov	r0, r3
    175c:	e58dc000 	str	ip, [sp]
    1760:	e1a01006 	mov	r1, r6
    1764:	e58ec028 	str	ip, [lr, #40]	; 0x28
    1768:	e58e9024 	str	r9, [lr, #36]	; 0x24
    176c:	e58e6020 	str	r6, [lr, #32]
    1770:	e5848008 	str	r8, [r4, #8]
    1774:	fa000c6c 	blx	492c <spin1_dma_transfer>
    1778:	e594301c 	ldr	r3, [r4, #28]
    177c:	e2833001 	add	r3, r3, #1
    1780:	e2033001 	and	r3, r3, #1
    1784:	e584301c 	str	r3, [r4, #28]
    1788:	ebfffa8e 	bl	1c8 <cpu_int_disable>
    178c:	ebfffa8d 	bl	1c8 <cpu_int_disable>
    1790:	e3550000 	cmp	r5, #0
    1794:	05c45004 	strbeq	r5, [r4, #4]
    1798:	eaffff8c 	b	15d0 <_dma_complete_callback+0xb4>
    179c:	00404074 	.word	0x00404074
    17a0:	004045fc 	.word	0x004045fc
    17a4:	00005bfc 	.word	0x00005bfc
    17a8:	00005c64 	.word	0x00005c64
    17ac:	00005c10 	.word	0x00005c10
    17b0:	004040b4 	.word	0x004040b4

000017b4 <_user_event_callback>:
    17b4:	e92d47f0 	push	{r4, r5, r6, r7, r8, r9, sl, lr}
    17b8:	e59f41a0 	ldr	r4, [pc, #416]	; 1960 <_user_event_callback+0x1ac>
    17bc:	e59f71a0 	ldr	r7, [pc, #416]	; 1964 <_user_event_callback+0x1b0>
    17c0:	e24dd010 	sub	sp, sp, #16
    17c4:	e284600c 	add	r6, r4, #12
    17c8:	e3a05000 	mov	r5, #0
    17cc:	e28d100c 	add	r1, sp, #12
    17d0:	e28d0008 	add	r0, sp, #8
    17d4:	eb0001d5 	bl	1f30 <population_table_get_next_address>
    17d8:	e1a03005 	mov	r3, r5
    17dc:	e1a01006 	mov	r1, r6
    17e0:	e3500000 	cmp	r0, #0
    17e4:	0a000020 	beq	186c <_user_event_callback+0xb8>
    17e8:	e59dc00c 	ldr	ip, [sp, #12]
    17ec:	e35c0000 	cmp	ip, #0
    17f0:	e1a0200c 	mov	r2, ip
    17f4:	1a000005 	bne	1810 <_user_event_callback+0x5c>
    17f8:	e59dc008 	ldr	ip, [sp, #8]
    17fc:	e5970000 	ldr	r0, [r7]
    1800:	e59cc000 	ldr	ip, [ip]
    1804:	e584c018 	str	ip, [r4, #24]
    1808:	ebfffd14 	bl	c60 <synapses_process_synaptic_row>
    180c:	eaffffee 	b	17cc <_user_event_callback+0x18>
    1810:	e594601c 	ldr	r6, [r4, #28]
    1814:	e59d5008 	ldr	r5, [sp, #8]
    1818:	e084e206 	add	lr, r4, r6, lsl #4
    181c:	e3a03000 	mov	r3, #0
    1820:	e5947040 	ldr	r7, [r4, #64]	; 0x40
    1824:	e59e202c 	ldr	r2, [lr, #44]	; 0x2c
    1828:	e1a01005 	mov	r1, r5
    182c:	e58dc000 	str	ip, [sp]
    1830:	e1a00003 	mov	r0, r3
    1834:	e58ec028 	str	ip, [lr, #40]	; 0x28
    1838:	e58e7024 	str	r7, [lr, #36]	; 0x24
    183c:	e58e5020 	str	r5, [lr, #32]
    1840:	e5846008 	str	r6, [r4, #8]
    1844:	fa000c38 	blx	492c <spin1_dma_transfer>
    1848:	e594301c 	ldr	r3, [r4, #28]
    184c:	e2833001 	add	r3, r3, #1
    1850:	e2033001 	and	r3, r3, #1
    1854:	e584301c 	str	r3, [r4, #28]
    1858:	ebfffa5a 	bl	1c8 <cpu_int_disable>
    185c:	ebfffa59 	bl	1c8 <cpu_int_disable>
    1860:	ebfffa5c 	bl	1d8 <cpu_int_restore>
    1864:	e28dd010 	add	sp, sp, #16
    1868:	e8bd87f0 	pop	{r4, r5, r6, r7, r8, r9, sl, pc}
    186c:	e1a07000 	mov	r7, r0
    1870:	ebfffa54 	bl	1c8 <cpu_int_disable>
    1874:	e59f80ec 	ldr	r8, [pc, #236]	; 1968 <_user_event_callback+0x1b4>
    1878:	e59fa0e4 	ldr	sl, [pc, #228]	; 1964 <_user_event_callback+0x1b0>
    187c:	e2489034 	sub	r9, r8, #52	; 0x34
    1880:	e1a06000 	mov	r6, r0
    1884:	e1a01008 	mov	r1, r8
    1888:	e5940000 	ldr	r0, [r4]
    188c:	eb0006fd 	bl	3488 <circular_buffer_get_next>
    1890:	e2505000 	subs	r5, r0, #0
    1894:	e1a00006 	mov	r0, r6
    1898:	0a00002a 	beq	1948 <_user_event_callback+0x194>
    189c:	ebfffa4d 	bl	1d8 <cpu_int_restore>
    18a0:	e28d200c 	add	r2, sp, #12
    18a4:	e28d1008 	add	r1, sp, #8
    18a8:	e5940040 	ldr	r0, [r4, #64]	; 0x40
    18ac:	eb000145 	bl	1dc8 <population_table_get_first_address>
    18b0:	e2505000 	subs	r5, r0, #0
    18b4:	0a00000d 	beq	18f0 <_user_event_callback+0x13c>
    18b8:	e59dc00c 	ldr	ip, [sp, #12]
    18bc:	e1a03007 	mov	r3, r7
    18c0:	e35c0000 	cmp	ip, #0
    18c4:	e1a0200c 	mov	r2, ip
    18c8:	e1a01009 	mov	r1, r9
    18cc:	1a00000a 	bne	18fc <_user_event_callback+0x148>
    18d0:	e59dc008 	ldr	ip, [sp, #8]
    18d4:	e59a0000 	ldr	r0, [sl]
    18d8:	e59cc000 	ldr	ip, [ip]
    18dc:	e584c018 	str	ip, [r4, #24]
    18e0:	ebfffcde 	bl	c60 <synapses_process_synaptic_row>
    18e4:	ebfffa37 	bl	1c8 <cpu_int_disable>
    18e8:	e1a06000 	mov	r6, r0
    18ec:	eaffffe4 	b	1884 <_user_event_callback+0xd0>
    18f0:	ebfffa34 	bl	1c8 <cpu_int_disable>
    18f4:	e1a06000 	mov	r6, r0
    18f8:	eaffffe1 	b	1884 <_user_event_callback+0xd0>
    18fc:	e594701c 	ldr	r7, [r4, #28]
    1900:	e59d6008 	ldr	r6, [sp, #8]
    1904:	e084e207 	add	lr, r4, r7, lsl #4
    1908:	e3a03000 	mov	r3, #0
    190c:	e5948040 	ldr	r8, [r4, #64]	; 0x40
    1910:	e59e202c 	ldr	r2, [lr, #44]	; 0x2c
    1914:	e1a00003 	mov	r0, r3
    1918:	e58dc000 	str	ip, [sp]
    191c:	e1a01006 	mov	r1, r6
    1920:	e58ec028 	str	ip, [lr, #40]	; 0x28
    1924:	e58e8024 	str	r8, [lr, #36]	; 0x24
    1928:	e58e6020 	str	r6, [lr, #32]
    192c:	e5847008 	str	r7, [r4, #8]
    1930:	fa000bfd 	blx	492c <spin1_dma_transfer>
    1934:	e594301c 	ldr	r3, [r4, #28]
    1938:	e2833001 	add	r3, r3, #1
    193c:	e2033001 	and	r3, r3, #1
    1940:	e584301c 	str	r3, [r4, #28]
    1944:	ebfffa1f 	bl	1c8 <cpu_int_disable>
    1948:	ebfffa1e 	bl	1c8 <cpu_int_disable>
    194c:	e3550000 	cmp	r5, #0
    1950:	05c45004 	strbeq	r5, [r4, #4]
    1954:	ebfffa1f 	bl	1d8 <cpu_int_restore>
    1958:	e28dd010 	add	sp, sp, #16
    195c:	e8bd87f0 	pop	{r4, r5, r6, r7, r8, r9, sl, pc}
    1960:	00404074 	.word	0x00404074
    1964:	004045fc 	.word	0x004045fc
    1968:	004040b4 	.word	0x004040b4

0000196c <spike_processing_initialise>:
    196c:	e92d4ff0 	push	{r4, r5, r6, r7, r8, r9, sl, fp, lr}
    1970:	e59f60ec 	ldr	r6, [pc, #236]	; 1a64 <spike_processing_initialise+0xf8>
    1974:	e59fb0ec 	ldr	fp, [pc, #236]	; 1a68 <spike_processing_initialise+0xfc>
    1978:	e59fa0ec 	ldr	sl, [pc, #236]	; 1a6c <spike_processing_initialise+0x100>
    197c:	e59f90ec 	ldr	r9, [pc, #236]	; 1a70 <spike_processing_initialise+0x104>
    1980:	e24dd01c 	sub	sp, sp, #28
    1984:	e1a08100 	lsl	r8, r0, #2
    1988:	e2867020 	add	r7, r6, #32
    198c:	e3a05000 	mov	r5, #0
    1990:	e58d1010 	str	r1, [sp, #16]
    1994:	e58d2014 	str	r2, [sp, #20]
    1998:	e58d300c 	str	r3, [sp, #12]
    199c:	e1a00008 	mov	r0, r8
    19a0:	fa000c5a 	blx	4b10 <spin1_malloc>
    19a4:	e087c205 	add	ip, r7, r5, lsl #4
    19a8:	e1a0300b 	mov	r3, fp
    19ac:	e1a0200a 	mov	r2, sl
    19b0:	e1a01009 	mov	r1, r9
    19b4:	e1a04000 	mov	r4, r0
    19b8:	e3540000 	cmp	r4, #0
    19bc:	e3a00002 	mov	r0, #2
    19c0:	e58c400c 	str	r4, [ip, #12]
    19c4:	0a000020 	beq	1a4c <spike_processing_initialise+0xe0>
    19c8:	e58d5000 	str	r5, [sp]
    19cc:	e58d4004 	str	r4, [sp, #4]
    19d0:	e2855001 	add	r5, r5, #1
    19d4:	fa000990 	blx	401c <io_printf>
    19d8:	e3550002 	cmp	r5, #2
    19dc:	1affffee 	bne	199c <spike_processing_initialise+0x30>
    19e0:	e3a07000 	mov	r7, #0
    19e4:	e59d000c 	ldr	r0, [sp, #12]
    19e8:	e5865008 	str	r5, [r6, #8]
    19ec:	e5c67004 	strb	r7, [r6, #4]
    19f0:	e586701c 	str	r7, [r6, #28]
    19f4:	eb000656 	bl	3354 <circular_buffer_initialize>
    19f8:	e1500007 	cmp	r0, r7
    19fc:	e5860000 	str	r0, [r6]
    1a00:	0a00000f 	beq	1a44 <spike_processing_initialise+0xd8>
    1a04:	e59d2010 	ldr	r2, [sp, #16]
    1a08:	e3a04001 	mov	r4, #1
    1a0c:	e59f1060 	ldr	r1, [pc, #96]	; 1a74 <spike_processing_initialise+0x108>
    1a10:	e1a00007 	mov	r0, r7
    1a14:	e586700c 	str	r7, [r6, #12]
    1a18:	e5867014 	str	r7, [r6, #20]
    1a1c:	e5864010 	str	r4, [r6, #16]
    1a20:	fa000b04 	blx	4638 <spin1_callback_on>
    1a24:	e59f104c 	ldr	r1, [pc, #76]	; 1a78 <spike_processing_initialise+0x10c>
    1a28:	e1a00007 	mov	r0, r7
    1a2c:	eb0002c1 	bl	2538 <simulation_dma_transfer_done_callback_on>
    1a30:	e3a00004 	mov	r0, #4
    1a34:	e59d2014 	ldr	r2, [sp, #20]
    1a38:	e59f103c 	ldr	r1, [pc, #60]	; 1a7c <spike_processing_initialise+0x110>
    1a3c:	fa000afd 	blx	4638 <spin1_callback_on>
    1a40:	e1a00004 	mov	r0, r4
    1a44:	e28dd01c 	add	sp, sp, #28
    1a48:	e8bd8ff0 	pop	{r4, r5, r6, r7, r8, r9, sl, fp, pc}
    1a4c:	e3a030fd 	mov	r3, #253	; 0xfd
    1a50:	e59f2014 	ldr	r2, [pc, #20]	; 1a6c <spike_processing_initialise+0x100>
    1a54:	e59f1024 	ldr	r1, [pc, #36]	; 1a80 <spike_processing_initialise+0x114>
    1a58:	fa00096f 	blx	401c <io_printf>
    1a5c:	e1a00004 	mov	r0, r4
    1a60:	eafffff7 	b	1a44 <spike_processing_initialise+0xd8>
    1a64:	00404074 	.word	0x00404074
    1a68:	00000101 	.word	0x00000101
    1a6c:	00005bfc 	.word	0x00005bfc
    1a70:	00005cbc 	.word	0x00005cbc
    1a74:	000014d8 	.word	0x000014d8
    1a78:	0000151c 	.word	0x0000151c
    1a7c:	000017b4 	.word	0x000017b4
    1a80:	00005c84 	.word	0x00005c84

00001a84 <spike_processing_finish_write>:
    1a84:	e59f2038 	ldr	r2, [pc, #56]	; 1ac4 <spike_processing_finish_write+0x40>
    1a88:	e52de004 	push	{lr}		; (str lr, [sp, #-4]!)
    1a8c:	e0820200 	add	r0, r2, r0, lsl #4
    1a90:	e590202c 	ldr	r2, [r0, #44]	; 0x2c
    1a94:	e5901020 	ldr	r1, [r0, #32]
    1a98:	e5920000 	ldr	r0, [r2]
    1a9c:	e24dd00c 	sub	sp, sp, #12
    1aa0:	e3a03001 	mov	r3, #1
    1aa4:	e1a00100 	lsl	r0, r0, #2
    1aa8:	e58d0000 	str	r0, [sp]
    1aac:	e2811004 	add	r1, r1, #4
    1ab0:	e2822004 	add	r2, r2, #4
    1ab4:	e1a00003 	mov	r0, r3
    1ab8:	fa000b9b 	blx	492c <spin1_dma_transfer>
    1abc:	e28dd00c 	add	sp, sp, #12
    1ac0:	e49df004 	pop	{pc}		; (ldr pc, [sp], #4)
    1ac4:	00404074 	.word	0x00404074

00001ac8 <spike_processing_get_buffer_overflows>:
    1ac8:	e59f3004 	ldr	r3, [pc, #4]	; 1ad4 <spike_processing_get_buffer_overflows+0xc>
    1acc:	e5930000 	ldr	r0, [r3]
    1ad0:	ea000693 	b	3524 <circular_buffer_get_n_buffer_overflows>
    1ad4:	00404074 	.word	0x00404074

00001ad8 <population_table_initialise>:
    1ad8:	e92d4ff0 	push	{r4, r5, r6, r7, r8, r9, sl, fp, lr}
    1adc:	e24dd024 	sub	sp, sp, #36	; 0x24
    1ae0:	e1a05000 	mov	r5, r0
    1ae4:	e58d301c 	str	r3, [sp, #28]
    1ae8:	e3a00002 	mov	r0, #2
    1aec:	e3a03049 	mov	r3, #73	; 0x49
    1af0:	e1a0b001 	mov	fp, r1
    1af4:	e1a08002 	mov	r8, r2
    1af8:	e59f1284 	ldr	r1, [pc, #644]	; 1d84 <population_table_initialise+0x2ac>
    1afc:	e59f2284 	ldr	r2, [pc, #644]	; 1d88 <population_table_initialise+0x2b0>
    1b00:	fa000945 	blx	401c <io_printf>
    1b04:	e59f7280 	ldr	r7, [pc, #640]	; 1d8c <population_table_initialise+0x2b4>
    1b08:	e595c000 	ldr	ip, [r5]
    1b0c:	e58dc000 	str	ip, [sp]
    1b10:	e3a0304c 	mov	r3, #76	; 0x4c
    1b14:	e59f226c 	ldr	r2, [pc, #620]	; 1d88 <population_table_initialise+0x2b0>
    1b18:	e59f1270 	ldr	r1, [pc, #624]	; 1d90 <population_table_initialise+0x2b8>
    1b1c:	e3a00002 	mov	r0, #2
    1b20:	e587c000 	str	ip, [r7]
    1b24:	fa00093c 	blx	401c <io_printf>
    1b28:	e3a0300c 	mov	r3, #12
    1b2c:	e58d3000 	str	r3, [sp]
    1b30:	e59f2250 	ldr	r2, [pc, #592]	; 1d88 <population_table_initialise+0x2b0>
    1b34:	e3a0304f 	mov	r3, #79	; 0x4f
    1b38:	e59f1254 	ldr	r1, [pc, #596]	; 1d94 <population_table_initialise+0x2bc>
    1b3c:	e3a00002 	mov	r0, #2
    1b40:	fa000935 	blx	401c <io_printf>
    1b44:	e5974000 	ldr	r4, [r7]
    1b48:	e3a03053 	mov	r3, #83	; 0x53
    1b4c:	e0844084 	add	r4, r4, r4, lsl #1
    1b50:	e1a04104 	lsl	r4, r4, #2
    1b54:	e58d4000 	str	r4, [sp]
    1b58:	e59f2228 	ldr	r2, [pc, #552]	; 1d88 <population_table_initialise+0x2b0>
    1b5c:	e59f1234 	ldr	r1, [pc, #564]	; 1d98 <population_table_initialise+0x2c0>
    1b60:	e3a00002 	mov	r0, #2
    1b64:	fa00092c 	blx	401c <io_printf>
    1b68:	e1a03124 	lsr	r3, r4, #2
    1b6c:	e3540000 	cmp	r4, #0
    1b70:	e58d3018 	str	r3, [sp, #24]
    1b74:	1a00006e 	bne	1d34 <population_table_initialise+0x25c>
    1b78:	e5959004 	ldr	r9, [r5, #4]
    1b7c:	e1b0a109 	lsls	sl, r9, #2
    1b80:	0a000005 	beq	1b9c <population_table_initialise+0xc4>
    1b84:	e1a0000a 	mov	r0, sl
    1b88:	fa000be0 	blx	4b10 <spin1_malloc>
    1b8c:	e3500000 	cmp	r0, #0
    1b90:	e1a06000 	mov	r6, r0
    1b94:	e5870008 	str	r0, [r7, #8]
    1b98:	0a000072 	beq	1d68 <population_table_initialise+0x290>
    1b9c:	e5973000 	ldr	r3, [r7]
    1ba0:	e59f21e0 	ldr	r2, [pc, #480]	; 1d88 <population_table_initialise+0x2b0>
    1ba4:	e88d0018 	stm	sp, {r3, r4}
    1ba8:	e59f11ec 	ldr	r1, [pc, #492]	; 1d9c <population_table_initialise+0x2c4>
    1bac:	e3a0306f 	mov	r3, #111	; 0x6f
    1bb0:	e3a00002 	mov	r0, #2
    1bb4:	fa000918 	blx	401c <io_printf>
    1bb8:	e3a03072 	mov	r3, #114	; 0x72
    1bbc:	e59f21c4 	ldr	r2, [pc, #452]	; 1d88 <population_table_initialise+0x2b0>
    1bc0:	e59f11d8 	ldr	r1, [pc, #472]	; 1da0 <population_table_initialise+0x2c8>
    1bc4:	e3a00002 	mov	r0, #2
    1bc8:	e88d0600 	stm	sp, {r9, sl}
    1bcc:	fa000912 	blx	401c <io_printf>
    1bd0:	e1a02004 	mov	r2, r4
    1bd4:	e2851008 	add	r1, r5, #8
    1bd8:	e5970004 	ldr	r0, [r7, #4]
    1bdc:	eb000d29 	bl	5088 <memcpy>
    1be0:	e59d3018 	ldr	r3, [sp, #24]
    1be4:	e1a0200a 	mov	r2, sl
    1be8:	e2831002 	add	r1, r3, #2
    1bec:	e0851101 	add	r1, r5, r1, lsl #2
    1bf0:	e5970008 	ldr	r0, [r7, #8]
    1bf4:	eb000d23 	bl	5088 <memcpy>
    1bf8:	e3a0307d 	mov	r3, #125	; 0x7d
    1bfc:	e59f2184 	ldr	r2, [pc, #388]	; 1d88 <population_table_initialise+0x2b0>
    1c00:	e59f119c 	ldr	r1, [pc, #412]	; 1da4 <population_table_initialise+0x2cc>
    1c04:	e3a00002 	mov	r0, #2
    1c08:	e58db000 	str	fp, [sp]
    1c0c:	fa000902 	blx	401c <io_printf>
    1c10:	e3a03080 	mov	r3, #128	; 0x80
    1c14:	e59f216c 	ldr	r2, [pc, #364]	; 1d88 <population_table_initialise+0x2b0>
    1c18:	e59f1188 	ldr	r1, [pc, #392]	; 1da8 <population_table_initialise+0x2d0>
    1c1c:	e3a00002 	mov	r0, #2
    1c20:	e58d8000 	str	r8, [sp]
    1c24:	fa0008fc 	blx	401c <io_printf>
    1c28:	e59d201c 	ldr	r2, [sp, #28]
    1c2c:	e59f3178 	ldr	r3, [pc, #376]	; 1dac <population_table_initialise+0x2d4>
    1c30:	e5823000 	str	r3, [r2]
    1c34:	e59f1174 	ldr	r1, [pc, #372]	; 1db0 <population_table_initialise+0x2d8>
    1c38:	e3a03037 	mov	r3, #55	; 0x37
    1c3c:	e59f2144 	ldr	r2, [pc, #324]	; 1d88 <population_table_initialise+0x2b0>
    1c40:	e3a00002 	mov	r0, #2
    1c44:	e587b00c 	str	fp, [r7, #12]
    1c48:	e5878010 	str	r8, [r7, #16]
    1c4c:	fa0008f2 	blx	401c <io_printf>
    1c50:	e59f115c 	ldr	r1, [pc, #348]	; 1db4 <population_table_initialise+0x2dc>
    1c54:	e3a03038 	mov	r3, #56	; 0x38
    1c58:	e59f2128 	ldr	r2, [pc, #296]	; 1d88 <population_table_initialise+0x2b0>
    1c5c:	e3a00002 	mov	r0, #2
    1c60:	fa0008ed 	blx	401c <io_printf>
    1c64:	e5971000 	ldr	r1, [r7]
    1c68:	e3510000 	cmp	r1, #0
    1c6c:	0a000028 	beq	1d14 <population_table_initialise+0x23c>
    1c70:	e3a03000 	mov	r3, #0
    1c74:	e59fb13c 	ldr	fp, [pc, #316]	; 1db8 <population_table_initialise+0x2e0>
    1c78:	e59fa108 	ldr	sl, [pc, #264]	; 1d88 <population_table_initialise+0x2b0>
    1c7c:	e1a06003 	mov	r6, r3
    1c80:	e58d3018 	str	r3, [sp, #24]
    1c84:	e5972004 	ldr	r2, [r7, #4]
    1c88:	e59d0018 	ldr	r0, [sp, #24]
    1c8c:	e0823000 	add	r3, r2, r0
    1c90:	e1d340b8 	ldrh	r4, [r3, #8]
    1c94:	e1d350ba 	ldrh	r5, [r3, #10]
    1c98:	e7929000 	ldr	r9, [r2, r0]
    1c9c:	e0855004 	add	r5, r5, r4
    1ca0:	e1540005 	cmp	r4, r5
    1ca4:	e5938004 	ldr	r8, [r3, #4]
    1ca8:	aa000013 	bge	1cfc <population_table_initialise+0x224>
    1cac:	e5972008 	ldr	r2, [r7, #8]
    1cb0:	e3a03040 	mov	r3, #64	; 0x40
    1cb4:	e7921104 	ldr	r1, [r2, r4, lsl #2]
    1cb8:	e98d0210 	stmib	sp, {r4, r9}
    1cbc:	e2844001 	add	r4, r4, #1
    1cc0:	e20100ff 	and	r0, r1, #255	; 0xff
    1cc4:	e1a04804 	lsl	r4, r4, #16
    1cc8:	e00b1321 	and	r1, fp, r1, lsr #6
    1ccc:	e58d0014 	str	r0, [sp, #20]
    1cd0:	e58d1010 	str	r1, [sp, #16]
    1cd4:	e1a0200a 	mov	r2, sl
    1cd8:	e58d800c 	str	r8, [sp, #12]
    1cdc:	e58d6000 	str	r6, [sp]
    1ce0:	e59f10d4 	ldr	r1, [pc, #212]	; 1dbc <population_table_initialise+0x2e4>
    1ce4:	e3a00002 	mov	r0, #2
    1ce8:	e1a04824 	lsr	r4, r4, #16
    1cec:	fa0008ca 	blx	401c <io_printf>
    1cf0:	e1540005 	cmp	r4, r5
    1cf4:	baffffec 	blt	1cac <population_table_initialise+0x1d4>
    1cf8:	e5971000 	ldr	r1, [r7]
    1cfc:	e59d3018 	ldr	r3, [sp, #24]
    1d00:	e2866001 	add	r6, r6, #1
    1d04:	e283300c 	add	r3, r3, #12
    1d08:	e1560001 	cmp	r6, r1
    1d0c:	e58d3018 	str	r3, [sp, #24]
    1d10:	3affffdb 	bcc	1c84 <population_table_initialise+0x1ac>
    1d14:	e3a00002 	mov	r0, #2
    1d18:	e3a03043 	mov	r3, #67	; 0x43
    1d1c:	e59f2064 	ldr	r2, [pc, #100]	; 1d88 <population_table_initialise+0x2b0>
    1d20:	e59f108c 	ldr	r1, [pc, #140]	; 1db4 <population_table_initialise+0x2dc>
    1d24:	fa0008bc 	blx	401c <io_printf>
    1d28:	e3a00001 	mov	r0, #1
    1d2c:	e28dd024 	add	sp, sp, #36	; 0x24
    1d30:	e8bd8ff0 	pop	{r4, r5, r6, r7, r8, r9, sl, fp, pc}
    1d34:	e1a00004 	mov	r0, r4
    1d38:	fa000b74 	blx	4b10 <spin1_malloc>
    1d3c:	e3500000 	cmp	r0, #0
    1d40:	e1a06000 	mov	r6, r0
    1d44:	e5870004 	str	r0, [r7, #4]
    1d48:	1affff8a 	bne	1b78 <population_table_initialise+0xa0>
    1d4c:	e3a00002 	mov	r0, #2
    1d50:	e3a0305a 	mov	r3, #90	; 0x5a
    1d54:	e59f202c 	ldr	r2, [pc, #44]	; 1d88 <population_table_initialise+0x2b0>
    1d58:	e59f1060 	ldr	r1, [pc, #96]	; 1dc0 <population_table_initialise+0x2e8>
    1d5c:	fa0008ae 	blx	401c <io_printf>
    1d60:	e1a00006 	mov	r0, r6
    1d64:	eafffff0 	b	1d2c <population_table_initialise+0x254>
    1d68:	e3a00002 	mov	r0, #2
    1d6c:	e3a03068 	mov	r3, #104	; 0x68
    1d70:	e59f2010 	ldr	r2, [pc, #16]	; 1d88 <population_table_initialise+0x2b0>
    1d74:	e59f1048 	ldr	r1, [pc, #72]	; 1dc4 <population_table_initialise+0x2ec>
    1d78:	fa0008a7 	blx	401c <io_printf>
    1d7c:	e1a00006 	mov	r0, r6
    1d80:	eaffffe9 	b	1d2c <population_table_initialise+0x254>
    1d84:	00005d1c 	.word	0x00005d1c
    1d88:	00005cf4 	.word	0x00005cf4
    1d8c:	004040b8 	.word	0x004040b8
    1d90:	00005d58 	.word	0x00005d58
    1d94:	00005d8c 	.word	0x00005d8c
    1d98:	00005dc4 	.word	0x00005dc4
    1d9c:	00005e78 	.word	0x00005e78
    1da0:	00005eac 	.word	0x00005eac
    1da4:	00005ee4 	.word	0x00005ee4
    1da8:	00005f38 	.word	0x00005f38
    1dac:	00000102 	.word	0x00000102
    1db0:	00005f8c 	.word	0x00005f8c
    1db4:	00005fb4 	.word	0x00005fb4
    1db8:	01fffffc 	.word	0x01fffffc
    1dbc:	00005ff8 	.word	0x00005ff8
    1dc0:	00005df0 	.word	0x00005df0
    1dc4:	00005e30 	.word	0x00005e30

00001dc8 <population_table_get_first_address>:
    1dc8:	e92d47f0 	push	{r4, r5, r6, r7, r8, r9, sl, lr}
    1dcc:	e59f8154 	ldr	r8, [pc, #340]	; 1f28 <population_table_get_first_address+0x160>
    1dd0:	e3a0e000 	mov	lr, #0
    1dd4:	e5989000 	ldr	r9, [r8]
    1dd8:	e5985004 	ldr	r5, [r8, #4]
    1ddc:	e159000e 	cmp	r9, lr
    1de0:	9a000021 	bls	1e6c <population_table_get_first_address+0xa4>
    1de4:	e089300e 	add	r3, r9, lr
    1de8:	e1a030a3 	lsr	r3, r3, #1
    1dec:	e0836083 	add	r6, r3, r3, lsl #1
    1df0:	e085c106 	add	ip, r5, r6, lsl #2
    1df4:	e59c4004 	ldr	r4, [ip, #4]
    1df8:	e795a106 	ldr	sl, [r5, r6, lsl #2]
    1dfc:	e0006004 	and	r6, r0, r4
    1e00:	e156000a 	cmp	r6, sl
    1e04:	e1dc70b8 	ldrh	r7, [ip, #8]
    1e08:	e1dc60ba 	ldrh	r6, [ip, #10]
    1e0c:	0a000018 	beq	1e74 <population_table_get_first_address+0xac>
    1e10:	e150000a 	cmp	r0, sl
    1e14:	81a0c003 	movhi	ip, r3
    1e18:	8a000010 	bhi	1e60 <population_table_get_first_address+0x98>
    1e1c:	e08ec003 	add	ip, lr, r3
    1e20:	e1a0c0ac 	lsr	ip, ip, #1
    1e24:	e08c708c 	add	r7, ip, ip, lsl #1
    1e28:	e15e0003 	cmp	lr, r3
    1e2c:	e0856107 	add	r6, r5, r7, lsl #2
    1e30:	2a00000d 	bcs	1e6c <population_table_get_first_address+0xa4>
    1e34:	e5964004 	ldr	r4, [r6, #4]
    1e38:	e7959107 	ldr	r9, [r5, r7, lsl #2]
    1e3c:	e0007004 	and	r7, r0, r4
    1e40:	e1590007 	cmp	r9, r7
    1e44:	e1d670b8 	ldrh	r7, [r6, #8]
    1e48:	e1d660ba 	ldrh	r6, [r6, #10]
    1e4c:	0a000008 	beq	1e74 <population_table_get_first_address+0xac>
    1e50:	e1590000 	cmp	r9, r0
    1e54:	21a0300c 	movcs	r3, ip
    1e58:	2affffef 	bcs	1e1c <population_table_get_first_address+0x54>
    1e5c:	e1a09003 	mov	r9, r3
    1e60:	e28ce001 	add	lr, ip, #1
    1e64:	e159000e 	cmp	r9, lr
    1e68:	8affffdd 	bhi	1de4 <population_table_get_first_address+0x1c>
    1e6c:	e3a00000 	mov	r0, #0
    1e70:	e8bd87f0 	pop	{r4, r5, r6, r7, r8, r9, sl, pc}
    1e74:	e1c00004 	bic	r0, r0, r4
    1e78:	e3560000 	cmp	r6, #0
    1e7c:	e5880014 	str	r0, [r8, #20]
    1e80:	e1c871b8 	strh	r7, [r8, #24]
    1e84:	e1c861ba 	strh	r6, [r8, #26]
    1e88:	0afffff7 	beq	1e6c <population_table_get_first_address+0xa4>
    1e8c:	e5984008 	ldr	r4, [r8, #8]
    1e90:	e794c107 	ldr	ip, [r4, r7, lsl #2]
    1e94:	e35c0000 	cmp	ip, #0
    1e98:	ba00001a 	blt	1f08 <population_table_get_first_address+0x140>
    1e9c:	e2463001 	sub	r3, r6, #1
    1ea0:	e287e001 	add	lr, r7, #1
    1ea4:	e21c50ff 	ands	r5, ip, #255	; 0xff
    1ea8:	e1a03803 	lsl	r3, r3, #16
    1eac:	e1a0e80e 	lsl	lr, lr, #16
    1eb0:	0a00000e 	beq	1ef0 <population_table_get_first_address+0x128>
    1eb4:	e59fe070 	ldr	lr, [pc, #112]	; 1f2c <population_table_get_first_address+0x164>
    1eb8:	e598300c 	ldr	r3, [r8, #12]
    1ebc:	e2855003 	add	r5, r5, #3
    1ec0:	e00ec32c 	and	ip, lr, ip, lsr #6
    1ec4:	e1a05105 	lsl	r5, r5, #2
    1ec8:	e083c00c 	add	ip, r3, ip
    1ecc:	e020c095 	mla	r0, r5, r0, ip
    1ed0:	e5810000 	str	r0, [r1]
    1ed4:	e5825000 	str	r5, [r2]
    1ed8:	e2877001 	add	r7, r7, #1
    1edc:	e2466001 	sub	r6, r6, #1
    1ee0:	e1c871b8 	strh	r7, [r8, #24]
    1ee4:	e1c861ba 	strh	r6, [r8, #26]
    1ee8:	e3a00001 	mov	r0, #1
    1eec:	e8bd87f0 	pop	{r4, r5, r6, r7, r8, r9, sl, pc}
    1ef0:	e1b06823 	lsrs	r6, r3, #16
    1ef4:	e1a0782e 	lsr	r7, lr, #16
    1ef8:	1affffe4 	bne	1e90 <population_table_get_first_address+0xc8>
    1efc:	e1c871b8 	strh	r7, [r8, #24]
    1f00:	e1c861ba 	strh	r6, [r8, #26]
    1f04:	eaffffd8 	b	1e6c <population_table_get_first_address+0xa4>
    1f08:	e5984010 	ldr	r4, [r8, #16]
    1f0c:	e1a0c08c 	lsl	ip, ip, #1
    1f10:	e0840100 	add	r0, r4, r0, lsl #2
    1f14:	e08004ac 	add	r0, r0, ip, lsr #9
    1f18:	e3a03000 	mov	r3, #0
    1f1c:	e5810000 	str	r0, [r1]
    1f20:	e5823000 	str	r3, [r2]
    1f24:	eaffffeb 	b	1ed8 <population_table_get_first_address+0x110>
    1f28:	004040b8 	.word	0x004040b8
    1f2c:	01fffffc 	.word	0x01fffffc

00001f30 <population_table_get_next_address>:
    1f30:	e92d40f0 	push	{r4, r5, r6, r7, lr}
    1f34:	e59f50b8 	ldr	r5, [pc, #184]	; 1ff4 <population_table_get_next_address+0xc4>
    1f38:	e1d541ba 	ldrh	r4, [r5, #26]
    1f3c:	e3540000 	cmp	r4, #0
    1f40:	0a000020 	beq	1fc8 <population_table_get_next_address+0x98>
    1f44:	e5957008 	ldr	r7, [r5, #8]
    1f48:	e1d521b8 	ldrh	r2, [r5, #24]
    1f4c:	e797c102 	ldr	ip, [r7, r2, lsl #2]
    1f50:	e35c0000 	cmp	ip, #0
    1f54:	ba00001d 	blt	1fd0 <population_table_get_next_address+0xa0>
    1f58:	e2443001 	sub	r3, r4, #1
    1f5c:	e282e001 	add	lr, r2, #1
    1f60:	e21c60ff 	ands	r6, ip, #255	; 0xff
    1f64:	e1a03803 	lsl	r3, r3, #16
    1f68:	e1a0e80e 	lsl	lr, lr, #16
    1f6c:	0a000010 	beq	1fb4 <population_table_get_next_address+0x84>
    1f70:	e595e014 	ldr	lr, [r5, #20]
    1f74:	e59f707c 	ldr	r7, [pc, #124]	; 1ff8 <population_table_get_next_address+0xc8>
    1f78:	e2863003 	add	r3, r6, #3
    1f7c:	e1a0e10e 	lsl	lr, lr, #2
    1f80:	e007c32c 	and	ip, r7, ip, lsr #6
    1f84:	e02cce93 	mla	ip, r3, lr, ip
    1f88:	e595e00c 	ldr	lr, [r5, #12]
    1f8c:	e1a03103 	lsl	r3, r3, #2
    1f90:	e08ec00c 	add	ip, lr, ip
    1f94:	e580c000 	str	ip, [r0]
    1f98:	e5813000 	str	r3, [r1]
    1f9c:	e2822001 	add	r2, r2, #1
    1fa0:	e2444001 	sub	r4, r4, #1
    1fa4:	e3a00001 	mov	r0, #1
    1fa8:	e1c521b8 	strh	r2, [r5, #24]
    1fac:	e1c541ba 	strh	r4, [r5, #26]
    1fb0:	e8bd80f0 	pop	{r4, r5, r6, r7, pc}
    1fb4:	e1b04823 	lsrs	r4, r3, #16
    1fb8:	e1a0282e 	lsr	r2, lr, #16
    1fbc:	1affffe2 	bne	1f4c <population_table_get_next_address+0x1c>
    1fc0:	e1c521b8 	strh	r2, [r5, #24]
    1fc4:	e1c541ba 	strh	r4, [r5, #26]
    1fc8:	e3a00000 	mov	r0, #0
    1fcc:	e8bd80f0 	pop	{r4, r5, r6, r7, pc}
    1fd0:	e595e014 	ldr	lr, [r5, #20]
    1fd4:	e5953010 	ldr	r3, [r5, #16]
    1fd8:	e1a0c08c 	lsl	ip, ip, #1
    1fdc:	e083310e 	add	r3, r3, lr, lsl #2
    1fe0:	e083c4ac 	add	ip, r3, ip, lsr #9
    1fe4:	e3a03000 	mov	r3, #0
    1fe8:	e580c000 	str	ip, [r0]
    1fec:	e5813000 	str	r3, [r1]
    1ff0:	eaffffe9 	b	1f9c <population_table_get_next_address+0x6c>
    1ff4:	004040b8 	.word	0x004040b8
    1ff8:	01fffffc 	.word	0x01fffffc

00001ffc <neuron_model_set_global_neuron_params>:
    1ffc:	e12fff1e 	bx	lr

00002000 <neuron_model_state_update>:
    2000:	e92d4010 	push	{r4, lr}
    2004:	e0401001 	sub	r1, r0, r1
    2008:	e5930004 	ldr	r0, [r3, #4]
    200c:	e1a04003 	mov	r4, r3
    2010:	e0812002 	add	r2, r1, r2
    2014:	e5933000 	ldr	r3, [r3]
    2018:	e0822000 	add	r2, r2, r0
    201c:	e0822003 	add	r2, r2, r3
    2020:	e24dd008 	sub	sp, sp, #8
    2024:	e5842000 	str	r2, [r4]
    2028:	e3a0301c 	mov	r3, #28
    202c:	e58d2000 	str	r2, [sp]
    2030:	e59f1014 	ldr	r1, [pc, #20]	; 204c <P2P_TABLE_SIZE+0x4c>
    2034:	e59f2014 	ldr	r2, [pc, #20]	; 2050 <P2P_TABLE_SIZE+0x50>
    2038:	e3a00002 	mov	r0, #2
    203c:	fa0007f6 	blx	401c <io_printf>
    2040:	e5940000 	ldr	r0, [r4]
    2044:	e28dd008 	add	sp, sp, #8
    2048:	e8bd8010 	pop	{r4, pc}
    204c:	00006074 	.word	0x00006074
    2050:	0000605c 	.word	0x0000605c

00002054 <neuron_model_get_membrane_voltage>:
    2054:	e5900000 	ldr	r0, [r0]
    2058:	e12fff1e 	bx	lr

0000205c <neuron_model_has_spiked>:
    205c:	e5903008 	ldr	r3, [r0, #8]
    2060:	e5803000 	str	r3, [r0]
    2064:	e12fff1e 	bx	lr

00002068 <neuron_model_print_state_variables>:
    2068:	e12fff1e 	bx	lr

0000206c <neuron_model_print_parameters>:
    206c:	e12fff1e 	bx	lr

00002070 <synapse_dynamics_initialise>:
    2070:	e3a00001 	mov	r0, #1
    2074:	e12fff1e 	bx	lr

00002078 <synapse_dynamics_process_post_synaptic_event>:
    2078:	e12fff1e 	bx	lr

0000207c <synapse_dynamics_process_plastic_synapses>:
    207c:	e92d4010 	push	{r4, lr}
    2080:	e3a0301c 	mov	r3, #28
    2084:	e59f2010 	ldr	r2, [pc, #16]	; 209c <synapse_dynamics_process_plastic_synapses+0x20>
    2088:	e59f1010 	ldr	r1, [pc, #16]	; 20a0 <synapse_dynamics_process_plastic_synapses+0x24>
    208c:	e3a00002 	mov	r0, #2
    2090:	fa0007e1 	blx	401c <io_printf>
    2094:	e3a00000 	mov	r0, #0
    2098:	e8bd8010 	pop	{r4, pc}
    209c:	000060a8 	.word	0x000060a8
    20a0:	000060c8 	.word	0x000060c8

000020a4 <synapse_dynamics_get_intrinsic_bias>:
    20a4:	e3a00000 	mov	r0, #0
    20a8:	e12fff1e 	bx	lr

000020ac <synapse_dynamics_print_plastic_synapses>:
    20ac:	e12fff1e 	bx	lr

000020b0 <synapse_dynamics_get_plastic_pre_synaptic_events>:
    20b0:	e3a00000 	mov	r0, #0
    20b4:	e12fff1e 	bx	lr

000020b8 <data_specification_get_data_address>:
    20b8:	e92d4013 	push	{r0, r1, r4, lr}
    20bc:	fa000a8d 	blx	4af8 <spin1_get_core_id>
    20c0:	e3a03026 	mov	r3, #38	; 0x26
    20c4:	e59f2028 	ldr	r2, [pc, #40]	; 20f4 <data_specification_get_data_address+0x3c>
    20c8:	e59f1028 	ldr	r1, [pc, #40]	; 20f8 <data_specification_get_data_address+0x40>
    20cc:	e1a00380 	lsl	r0, r0, #7
    20d0:	e28004e5 	add	r0, r0, #-452984832	; 0xe5000000
    20d4:	e2800a07 	add	r0, r0, #28672	; 0x7000
    20d8:	e5904070 	ldr	r4, [r0, #112]	; 0x70
    20dc:	e58d4000 	str	r4, [sp]
    20e0:	e3a00002 	mov	r0, #2
    20e4:	fa0007cc 	blx	401c <io_printf>
    20e8:	e1a00004 	mov	r0, r4
    20ec:	e28dd008 	add	sp, sp, #8
    20f0:	e8bd8010 	pop	{r4, pc}
    20f4:	00006118 	.word	0x00006118
    20f8:	00006131 	.word	0x00006131

000020fc <data_specification_read_header>:
    20fc:	e92d401f 	push	{r0, r1, r2, r3, r4, lr}
    2100:	e5903000 	ldr	r3, [r0]
    2104:	e59f2070 	ldr	r2, [pc, #112]	; 217c <data_specification_read_header+0x80>
    2108:	e1530002 	cmp	r3, r2
    210c:	0a000008 	beq	2134 <data_specification_read_header+0x38>
    2110:	e59f2068 	ldr	r2, [pc, #104]	; 2180 <data_specification_read_header+0x84>
    2114:	e59f1068 	ldr	r1, [pc, #104]	; 2184 <data_specification_read_header+0x88>
    2118:	e58d3000 	str	r3, [sp]
    211c:	e3a03037 	mov	r3, #55	; 0x37
    2120:	e3a00002 	mov	r0, #2
    2124:	fa0007bc 	blx	401c <io_printf>
    2128:	e3a00000 	mov	r0, #0
    212c:	e28dd010 	add	sp, sp, #16
    2130:	e8bd8010 	pop	{r4, pc}
    2134:	e5902004 	ldr	r2, [r0, #4]
    2138:	e3520801 	cmp	r2, #65536	; 0x10000
    213c:	158d2000 	strne	r2, [sp]
    2140:	13a0303c 	movne	r3, #60	; 0x3c
    2144:	159f2034 	ldrne	r2, [pc, #52]	; 2180 <data_specification_read_header+0x84>
    2148:	159f1038 	ldrne	r1, [pc, #56]	; 2188 <data_specification_read_header+0x8c>
    214c:	1afffff3 	bne	2120 <data_specification_read_header+0x24>
    2150:	e3a02000 	mov	r2, #0
    2154:	e3a04001 	mov	r4, #1
    2158:	e58d2008 	str	r2, [sp, #8]
    215c:	e88d0018 	stm	sp, {r3, r4}
    2160:	e3a00002 	mov	r0, #2
    2164:	e3a03043 	mov	r3, #67	; 0x43
    2168:	e59f2010 	ldr	r2, [pc, #16]	; 2180 <data_specification_read_header+0x84>
    216c:	e59f1018 	ldr	r1, [pc, #24]	; 218c <data_specification_read_header+0x90>
    2170:	fa0007a9 	blx	401c <io_printf>
    2174:	e1a00004 	mov	r0, r4
    2178:	eaffffeb 	b	212c <data_specification_read_header+0x30>
    217c:	ad130ad6 	.word	0xad130ad6
    2180:	00006118 	.word	0x00006118
    2184:	00006169 	.word	0x00006169
    2188:	0000619e 	.word	0x0000619e
    218c:	000061d5 	.word	0x000061d5

00002190 <data_specification_get_region>:
    2190:	e2800002 	add	r0, r0, #2
    2194:	e7910100 	ldr	r0, [r1, r0, lsl #2]
    2198:	e12fff1e 	bx	lr

0000219c <_execute_provenance_storage>:
    219c:	e92d4070 	push	{r4, r5, r6, lr}
    21a0:	e59f4084 	ldr	r4, [pc, #132]	; 222c <_execute_provenance_storage+0x90>
    21a4:	e5943000 	ldr	r3, [r4]
    21a8:	e3530000 	cmp	r3, #0
    21ac:	08bd8070 	popeq	{r4, r5, r6, pc}
    21b0:	e3a0303d 	mov	r3, #61	; 0x3d
    21b4:	e59f2074 	ldr	r2, [pc, #116]	; 2230 <_execute_provenance_storage+0x94>
    21b8:	e3a00002 	mov	r0, #2
    21bc:	e59f1070 	ldr	r1, [pc, #112]	; 2234 <_execute_provenance_storage+0x98>
    21c0:	fa000795 	blx	401c <io_printf>
    21c4:	e59f306c 	ldr	r3, [pc, #108]	; 2238 <_execute_provenance_storage+0x9c>
    21c8:	e5940000 	ldr	r0, [r4]
    21cc:	e5932024 	ldr	r2, [r3, #36]	; 0x24
    21d0:	e5802000 	str	r2, [r0]
    21d4:	e5932020 	ldr	r2, [r3, #32]
    21d8:	e5802004 	str	r2, [r0, #4]
    21dc:	e59f5058 	ldr	r5, [pc, #88]	; 223c <_execute_provenance_storage+0xa0>
    21e0:	e593201c 	ldr	r2, [r3, #28]
    21e4:	e5802008 	str	r2, [r0, #8]
    21e8:	e5932044 	ldr	r2, [r3, #68]	; 0x44
    21ec:	e5933040 	ldr	r3, [r3, #64]	; 0x40
    21f0:	e5803010 	str	r3, [r0, #16]
    21f4:	e5953000 	ldr	r3, [r5]
    21f8:	e580200c 	str	r2, [r0, #12]
    21fc:	e3530000 	cmp	r3, #0
    2200:	e2804014 	add	r4, r0, #20
    2204:	08bd8070 	popeq	{r4, r5, r6, pc}
    2208:	e3a03040 	mov	r3, #64	; 0x40
    220c:	e3a00002 	mov	r0, #2
    2210:	e59f2018 	ldr	r2, [pc, #24]	; 2230 <_execute_provenance_storage+0x94>
    2214:	e59f1024 	ldr	r1, [pc, #36]	; 2240 <_execute_provenance_storage+0xa4>
    2218:	fa00077f 	blx	401c <io_printf>
    221c:	e5953000 	ldr	r3, [r5]
    2220:	e1a00004 	mov	r0, r4
    2224:	e8bd4070 	pop	{r4, r5, r6, lr}
    2228:	e12fff13 	bx	r3
    222c:	00404140 	.word	0x00404140
    2230:	00006208 	.word	0x00006208
    2234:	00006219 	.word	0x00006219
    2238:	004046e0 	.word	0x004046e0
    223c:	00404144 	.word	0x00404144
    2240:	00006252 	.word	0x00006252

00002244 <_simulation_sdp_callback_handler>:
    2244:	e59f3010 	ldr	r3, [pc, #16]	; 225c <_simulation_sdp_callback_handler+0x18>
    2248:	e7933101 	ldr	r3, [r3, r1, lsl #2]
    224c:	e3530000 	cmp	r3, #0
    2250:	0a000000 	beq	2258 <_simulation_sdp_callback_handler+0x14>
    2254:	e12fff13 	bx	r3
    2258:	ea000c1e 	b	52d8 <__sark_msg_free_from_arm>
    225c:	0040411c 	.word	0x0040411c

00002260 <_simulation_dma_transfer_done_callback>:
    2260:	e351000f 	cmp	r1, #15
    2264:	812fff1e 	bxhi	lr
    2268:	e59f200c 	ldr	r2, [pc, #12]	; 227c <_simulation_dma_transfer_done_callback+0x1c>
    226c:	e7923101 	ldr	r3, [r2, r1, lsl #2]
    2270:	e3530000 	cmp	r3, #0
    2274:	012fff1e 	bxeq	lr
    2278:	e12fff13 	bx	r3
    227c:	004040d4 	.word	0x004040d4

00002280 <simulation_run>:
    2280:	ea000c0a 	b	52b0 <__spin1_start_paused_from_arm>

00002284 <simulation_handle_pause_resume>:
    2284:	e59f3010 	ldr	r3, [pc, #16]	; 229c <simulation_handle_pause_resume+0x18>
    2288:	e92d4010 	push	{r4, lr}
    228c:	e5830000 	str	r0, [r3]
    2290:	ebffffc1 	bl	219c <_execute_provenance_storage>
    2294:	e8bd4010 	pop	{r4, lr}
    2298:	ea000c08 	b	52c0 <__spin1_pause_from_arm>
    229c:	00404148 	.word	0x00404148

000022a0 <_send_ok_response>:
    22a0:	e3a02080 	mov	r2, #128	; 0x80
    22a4:	e5d0100a 	ldrb	r1, [r0, #10]
    22a8:	e1c021b0 	strh	r2, [r0, #16]
    22ac:	e3a0200c 	mov	r2, #12
    22b0:	e5d0c00b 	ldrb	ip, [r0, #11]
    22b4:	e1c020b4 	strh	r2, [r0, #4]
    22b8:	e5c0100b 	strb	r1, [r0, #11]
    22bc:	e1d020bc 	ldrh	r2, [r0, #12]
    22c0:	e1d010be 	ldrh	r1, [r0, #14]
    22c4:	e1c010bc 	strh	r1, [r0, #12]
    22c8:	e5c0c00a 	strb	ip, [r0, #10]
    22cc:	e1c020be 	strh	r2, [r0, #14]
    22d0:	e3a0100a 	mov	r1, #10
    22d4:	ea000bfd 	b	52d0 <__spin1_send_sdp_msg_from_arm>

000022d8 <_simulation_control_scp_callback>:
    22d8:	e1d031b0 	ldrh	r3, [r0, #16]
    22dc:	e92d4037 	push	{r0, r1, r2, r4, r5, lr}
    22e0:	e2432006 	sub	r2, r3, #6
    22e4:	e1a04000 	mov	r4, r0
    22e8:	e3520003 	cmp	r2, #3
    22ec:	979ff102 	ldrls	pc, [pc, r2, lsl #2]
    22f0:	ea000068 	b	2498 <_simulation_control_scp_callback+0x1c0>
    22f4:	00002304 	.word	0x00002304
    22f8:	00002370 	.word	0x00002370
    22fc:	0000243c 	.word	0x0000243c
    2300:	00002490 	.word	0x00002490
    2304:	e3a0307d 	mov	r3, #125	; 0x7d
    2308:	e59f21a4 	ldr	r2, [pc, #420]	; 24b4 <_simulation_control_scp_callback+0x1dc>
    230c:	e59f11a4 	ldr	r1, [pc, #420]	; 24b8 <_simulation_control_scp_callback+0x1e0>
    2310:	e3a00002 	mov	r0, #2
    2314:	fa000740 	blx	401c <io_printf>
    2318:	e1a00004 	mov	r0, r4
    231c:	e59f4198 	ldr	r4, [pc, #408]	; 24bc <_simulation_control_scp_callback+0x1e4>
    2320:	fa0007e1 	blx	42ac <spin1_msg_free>
    2324:	e5943000 	ldr	r3, [r4]
    2328:	e3530000 	cmp	r3, #0
    232c:	0a000006 	beq	234c <_simulation_control_scp_callback+0x74>
    2330:	e3a03084 	mov	r3, #132	; 0x84
    2334:	e59f2178 	ldr	r2, [pc, #376]	; 24b4 <_simulation_control_scp_callback+0x1dc>
    2338:	e59f1180 	ldr	r1, [pc, #384]	; 24c0 <_simulation_control_scp_callback+0x1e8>
    233c:	e3a00002 	mov	r0, #2
    2340:	fa000735 	blx	401c <io_printf>
    2344:	e5943000 	ldr	r3, [r4]
    2348:	e12fff33 	blx	r3
    234c:	e3a00002 	mov	r0, #2
    2350:	e3a03087 	mov	r3, #135	; 0x87
    2354:	e59f2158 	ldr	r2, [pc, #344]	; 24b4 <_simulation_control_scp_callback+0x1dc>
    2358:	e59f1164 	ldr	r1, [pc, #356]	; 24c4 <_simulation_control_scp_callback+0x1ec>
    235c:	fa00072e 	blx	401c <io_printf>
    2360:	e3a00000 	mov	r0, #0
    2364:	e28dd00c 	add	sp, sp, #12
    2368:	e8bd4030 	pop	{r4, r5, lr}
    236c:	ea000bd1 	b	52b8 <__spin1_exit_from_arm>
    2370:	e5903014 	ldr	r3, [r0, #20]
    2374:	e58d3000 	str	r3, [sp]
    2378:	e59f2134 	ldr	r2, [pc, #308]	; 24b4 <_simulation_control_scp_callback+0x1dc>
    237c:	e3a0308c 	mov	r3, #140	; 0x8c
    2380:	e59f1140 	ldr	r1, [pc, #320]	; 24c8 <_simulation_control_scp_callback+0x1f0>
    2384:	e3a00002 	mov	r0, #2
    2388:	fa000723 	blx	401c <io_printf>
    238c:	e5943018 	ldr	r3, [r4, #24]
    2390:	e58d3000 	str	r3, [sp]
    2394:	e59f2118 	ldr	r2, [pc, #280]	; 24b4 <_simulation_control_scp_callback+0x1dc>
    2398:	e3a0308e 	mov	r3, #142	; 0x8e
    239c:	e59f1128 	ldr	r1, [pc, #296]	; 24cc <_simulation_control_scp_callback+0x1f4>
    23a0:	e3a00002 	mov	r0, #2
    23a4:	fa00071c 	blx	401c <io_printf>
    23a8:	e59f3120 	ldr	r3, [pc, #288]	; 24d0 <_simulation_control_scp_callback+0x1f8>
    23ac:	e5942014 	ldr	r2, [r4, #20]
    23b0:	e5933000 	ldr	r3, [r3]
    23b4:	e59f5118 	ldr	r5, [pc, #280]	; 24d4 <_simulation_control_scp_callback+0x1fc>
    23b8:	e5832000 	str	r2, [r3]
    23bc:	e59f3114 	ldr	r3, [pc, #276]	; 24d8 <_simulation_control_scp_callback+0x200>
    23c0:	e5942018 	ldr	r2, [r4, #24]
    23c4:	e5933000 	ldr	r3, [r3]
    23c8:	e5832000 	str	r2, [r3]
    23cc:	e5953000 	ldr	r3, [r5]
    23d0:	e3530000 	cmp	r3, #0
    23d4:	0a000008 	beq	23fc <_simulation_control_scp_callback+0x124>
    23d8:	e3a03095 	mov	r3, #149	; 0x95
    23dc:	e59f20d0 	ldr	r2, [pc, #208]	; 24b4 <_simulation_control_scp_callback+0x1dc>
    23e0:	e59f10f4 	ldr	r1, [pc, #244]	; 24dc <_simulation_control_scp_callback+0x204>
    23e4:	e3a00002 	mov	r0, #2
    23e8:	fa00070b 	blx	401c <io_printf>
    23ec:	e5953000 	ldr	r3, [r5]
    23f0:	e12fff33 	blx	r3
    23f4:	e3a03000 	mov	r3, #0
    23f8:	e5853000 	str	r3, [r5]
    23fc:	e3a00002 	mov	r0, #2
    2400:	e3a03099 	mov	r3, #153	; 0x99
    2404:	e59f20a8 	ldr	r2, [pc, #168]	; 24b4 <_simulation_control_scp_callback+0x1dc>
    2408:	e59f10d0 	ldr	r1, [pc, #208]	; 24e0 <_simulation_control_scp_callback+0x208>
    240c:	fa000702 	blx	401c <io_printf>
    2410:	e3a00001 	mov	r0, #1
    2414:	fa000838 	blx	44fc <spin1_resume>
    2418:	e594301c 	ldr	r3, [r4, #28]
    241c:	e3530001 	cmp	r3, #1
    2420:	1a000001 	bne	242c <_simulation_control_scp_callback+0x154>
    2424:	e1a00004 	mov	r0, r4
    2428:	ebffff9c 	bl	22a0 <_send_ok_response>
    242c:	e1a00004 	mov	r0, r4
    2430:	e28dd00c 	add	sp, sp, #12
    2434:	e8bd4030 	pop	{r4, r5, lr}
    2438:	ea000ba2 	b	52c8 <__spin1_msg_free_from_arm>
    243c:	e59f5078 	ldr	r5, [pc, #120]	; 24bc <_simulation_control_scp_callback+0x1e4>
    2440:	e3a030a6 	mov	r3, #166	; 0xa6
    2444:	e59f2068 	ldr	r2, [pc, #104]	; 24b4 <_simulation_control_scp_callback+0x1dc>
    2448:	e59f1094 	ldr	r1, [pc, #148]	; 24e4 <_simulation_control_scp_callback+0x20c>
    244c:	e3a00002 	mov	r0, #2
    2450:	fa0006f1 	blx	401c <io_printf>
    2454:	ebffff50 	bl	219c <_execute_provenance_storage>
    2458:	e5953000 	ldr	r3, [r5]
    245c:	e3530000 	cmp	r3, #0
    2460:	0a000006 	beq	2480 <_simulation_control_scp_callback+0x1a8>
    2464:	e3a030ad 	mov	r3, #173	; 0xad
    2468:	e59f2044 	ldr	r2, [pc, #68]	; 24b4 <_simulation_control_scp_callback+0x1dc>
    246c:	e59f104c 	ldr	r1, [pc, #76]	; 24c0 <_simulation_control_scp_callback+0x1e8>
    2470:	e3a00002 	mov	r0, #2
    2474:	fa0006e8 	blx	401c <io_printf>
    2478:	e5953000 	ldr	r3, [r5]
    247c:	e12fff33 	blx	r3
    2480:	e1a00004 	mov	r0, r4
    2484:	fa000788 	blx	42ac <spin1_msg_free>
    2488:	e3a00001 	mov	r0, #1
    248c:	eaffffb4 	b	2364 <_simulation_control_scp_callback+0x8c>
    2490:	fa000665 	blx	3e2c <sark_io_buf_reset>
    2494:	eaffffdf 	b	2418 <_simulation_control_scp_callback+0x140>
    2498:	e58d3000 	str	r3, [sp]
    249c:	e59f2010 	ldr	r2, [pc, #16]	; 24b4 <_simulation_control_scp_callback+0x1dc>
    24a0:	e3a030c5 	mov	r3, #197	; 0xc5
    24a4:	e59f103c 	ldr	r1, [pc, #60]	; 24e8 <_simulation_control_scp_callback+0x210>
    24a8:	e3a00002 	mov	r0, #2
    24ac:	fa0006da 	blx	401c <io_printf>
    24b0:	eaffffdd 	b	242c <_simulation_control_scp_callback+0x154>
    24b4:	00006208 	.word	0x00006208
    24b8:	0000628a 	.word	0x0000628a
    24bc:	0040413c 	.word	0x0040413c
    24c0:	000062c7 	.word	0x000062c7
    24c4:	000062f6 	.word	0x000062f6
    24c8:	00006313 	.word	0x00006313
    24cc:	00006350 	.word	0x00006350
    24d0:	00404118 	.word	0x00404118
    24d4:	00404148 	.word	0x00404148
    24d8:	00404114 	.word	0x00404114
    24dc:	0000639b 	.word	0x0000639b
    24e0:	000063cc 	.word	0x000063cc
    24e4:	000063ea 	.word	0x000063ea
    24e8:	0000641b 	.word	0x0000641b

000024ec <simulation_sdp_callback_on>:
    24ec:	e59f3038 	ldr	r3, [pc, #56]	; 252c <simulation_sdp_callback_on+0x40>
    24f0:	e92d4007 	push	{r0, r1, r2, lr}
    24f4:	e7932100 	ldr	r2, [r3, r0, lsl #2]
    24f8:	e3520000 	cmp	r2, #0
    24fc:	1a000002 	bne	250c <simulation_sdp_callback_on+0x20>
    2500:	e7831100 	str	r1, [r3, r0, lsl #2]
    2504:	e28dd00c 	add	sp, sp, #12
    2508:	e49df004 	pop	{pc}		; (ldr pc, [sp], #4)
    250c:	e58d0000 	str	r0, [sp]
    2510:	e3a030de 	mov	r3, #222	; 0xde
    2514:	e3a00002 	mov	r0, #2
    2518:	e59f2010 	ldr	r2, [pc, #16]	; 2530 <simulation_sdp_callback_on+0x44>
    251c:	e59f1010 	ldr	r1, [pc, #16]	; 2534 <simulation_sdp_callback_on+0x48>
    2520:	fa0006bd 	blx	401c <io_printf>
    2524:	e3a00000 	mov	r0, #0
    2528:	eafffff5 	b	2504 <simulation_sdp_callback_on+0x18>
    252c:	0040411c 	.word	0x0040411c
    2530:	00006208 	.word	0x00006208
    2534:	000065f2 	.word	0x000065f2

00002538 <simulation_dma_transfer_done_callback_on>:
    2538:	e350000f 	cmp	r0, #15
    253c:	e92d4007 	push	{r0, r1, r2, lr}
    2540:	9a000008 	bls	2568 <simulation_dma_transfer_done_callback_on+0x30>
    2544:	e3a0300f 	mov	r3, #15
    2548:	e59f2048 	ldr	r2, [pc, #72]	; 2598 <simulation_dma_transfer_done_callback_on+0x60>
    254c:	e59f1048 	ldr	r1, [pc, #72]	; 259c <simulation_dma_transfer_done_callback_on+0x64>
    2550:	e58d3000 	str	r3, [sp]
    2554:	e3a030f3 	mov	r3, #243	; 0xf3
    2558:	e3a00002 	mov	r0, #2
    255c:	fa0006ae 	blx	401c <io_printf>
    2560:	e3a00000 	mov	r0, #0
    2564:	ea000004 	b	257c <simulation_dma_transfer_done_callback_on+0x44>
    2568:	e59f3030 	ldr	r3, [pc, #48]	; 25a0 <simulation_dma_transfer_done_callback_on+0x68>
    256c:	e7932100 	ldr	r2, [r3, r0, lsl #2]
    2570:	e3520000 	cmp	r2, #0
    2574:	1a000002 	bne	2584 <simulation_dma_transfer_done_callback_on+0x4c>
    2578:	e7831100 	str	r1, [r3, r0, lsl #2]
    257c:	e28dd00c 	add	sp, sp, #12
    2580:	e49df004 	pop	{pc}		; (ldr pc, [sp], #4)
    2584:	e58d0000 	str	r0, [sp]
    2588:	e3a030fe 	mov	r3, #254	; 0xfe
    258c:	e59f2004 	ldr	r2, [pc, #4]	; 2598 <simulation_dma_transfer_done_callback_on+0x60>
    2590:	e59f100c 	ldr	r1, [pc, #12]	; 25a4 <simulation_dma_transfer_done_callback_on+0x6c>
    2594:	eaffffef 	b	2558 <simulation_dma_transfer_done_callback_on+0x20>
    2598:	00006208 	.word	0x00006208
    259c:	0000645d 	.word	0x0000645d
    25a0:	004040d4 	.word	0x004040d4
    25a4:	000064bd 	.word	0x000064bd

000025a8 <simulation_initialise>:
    25a8:	e92d401f 	push	{r0, r1, r2, r3, r4, lr}
    25ac:	e1a04000 	mov	r4, r0
    25b0:	e5900000 	ldr	r0, [r0]
    25b4:	e1a0c002 	mov	ip, r2
    25b8:	e1500001 	cmp	r0, r1
    25bc:	e59d201c 	ldr	r2, [sp, #28]
    25c0:	0a000008 	beq	25e8 <simulation_initialise+0x40>
    25c4:	e88d0013 	stm	sp, {r0, r1, r4}
    25c8:	e59f3088 	ldr	r3, [pc, #136]	; 2658 <simulation_initialise+0xb0>
    25cc:	e59f2088 	ldr	r2, [pc, #136]	; 265c <simulation_initialise+0xb4>
    25d0:	e59f1088 	ldr	r1, [pc, #136]	; 2660 <simulation_initialise+0xb8>
    25d4:	e3a00002 	mov	r0, #2
    25d8:	fa00068f 	blx	401c <io_printf>
    25dc:	e3a00000 	mov	r0, #0
    25e0:	e28dd010 	add	sp, sp, #16
    25e4:	e8bd8010 	pop	{r4, pc}
    25e8:	e3720001 	cmn	r2, #1
    25ec:	aa000006 	bge	260c <simulation_initialise+0x64>
    25f0:	e58d2000 	str	r2, [sp]
    25f4:	e59f3068 	ldr	r3, [pc, #104]	; 2664 <simulation_initialise+0xbc>
    25f8:	e59f205c 	ldr	r2, [pc, #92]	; 265c <simulation_initialise+0xb4>
    25fc:	e59f1064 	ldr	r1, [pc, #100]	; 2668 <simulation_initialise+0xc0>
    2600:	e3a00002 	mov	r0, #2
    2604:	fa000684 	blx	401c <io_printf>
    2608:	eafffff3 	b	25dc <simulation_initialise+0x34>
    260c:	e5941004 	ldr	r1, [r4, #4]
    2610:	e58c1000 	str	r1, [ip]
    2614:	e59f1050 	ldr	r1, [pc, #80]	; 266c <simulation_initialise+0xc4>
    2618:	e3a00003 	mov	r0, #3
    261c:	e5813000 	str	r3, [r1]
    2620:	e59f3048 	ldr	r3, [pc, #72]	; 2670 <simulation_initialise+0xc8>
    2624:	e59d1018 	ldr	r1, [sp, #24]
    2628:	e5831000 	str	r1, [r3]
    262c:	e59f1040 	ldr	r1, [pc, #64]	; 2674 <simulation_initialise+0xcc>
    2630:	fa000800 	blx	4638 <spin1_callback_on>
    2634:	e59f103c 	ldr	r1, [pc, #60]	; 2678 <simulation_initialise+0xd0>
    2638:	e5940008 	ldr	r0, [r4, #8]
    263c:	ebffffaa 	bl	24ec <simulation_sdp_callback_on>
    2640:	e3a00001 	mov	r0, #1
    2644:	e59d2020 	ldr	r2, [sp, #32]
    2648:	e59f102c 	ldr	r1, [pc, #44]	; 267c <simulation_initialise+0xd4>
    264c:	fa0007f9 	blx	4638 <spin1_callback_on>
    2650:	e3a00001 	mov	r0, #1
    2654:	eaffffe1 	b	25e0 <simulation_initialise+0x38>
    2658:	00000113 	.word	0x00000113
    265c:	00006208 	.word	0x00006208
    2660:	00006521 	.word	0x00006521
    2664:	0000011b 	.word	0x0000011b
    2668:	00006571 	.word	0x00006571
    266c:	00404118 	.word	0x00404118
    2670:	00404114 	.word	0x00404114
    2674:	00002244 	.word	0x00002244
    2678:	000022d8 	.word	0x000022d8
    267c:	00002260 	.word	0x00002260

00002680 <simulation_set_provenance_function>:
    2680:	e59f300c 	ldr	r3, [pc, #12]	; 2694 <simulation_set_provenance_function+0x14>
    2684:	e5830000 	str	r0, [r3]
    2688:	e59f3008 	ldr	r3, [pc, #8]	; 2698 <simulation_set_provenance_function+0x18>
    268c:	e5831000 	str	r1, [r3]
    2690:	e12fff1e 	bx	lr
    2694:	00404144 	.word	0x00404144
    2698:	00404140 	.word	0x00404140

0000269c <compute_available_space_in_channel>:
    269c:	e59f3054 	ldr	r3, [pc, #84]	; 26f8 <compute_available_space_in_channel+0x5c>
    26a0:	e0800080 	add	r0, r0, r0, lsl #1
    26a4:	e5933000 	ldr	r3, [r3]
    26a8:	e1a00180 	lsl	r0, r0, #3
    26ac:	e0832000 	add	r2, r3, r0
    26b0:	e5921004 	ldr	r1, [r2, #4]
    26b4:	e592c00c 	ldr	ip, [r2, #12]
    26b8:	e7930000 	ldr	r0, [r3, r0]
    26bc:	e5923010 	ldr	r3, [r2, #16]
    26c0:	e151000c 	cmp	r1, ip
    26c4:	8083300c 	addhi	r3, r3, ip
    26c8:	e5d22016 	ldrb	r2, [r2, #22]
    26cc:	80433001 	subhi	r3, r3, r1
    26d0:	8a000004 	bhi	26e8 <compute_available_space_in_channel+0x4c>
    26d4:	2a000001 	bcs	26e0 <compute_available_space_in_channel+0x44>
    26d8:	e04c0001 	sub	r0, ip, r1
    26dc:	e12fff1e 	bx	lr
    26e0:	e3520001 	cmp	r2, #1
    26e4:	0a000001 	beq	26f0 <compute_available_space_in_channel+0x54>
    26e8:	e0430000 	sub	r0, r3, r0
    26ec:	e12fff1e 	bx	lr
    26f0:	e3a00000 	mov	r0, #0
    26f4:	e12fff1e 	bx	lr
    26f8:	00404158 	.word	0x00404158

000026fc <_create_buffer_message>:
    26fc:	e3a0c00c 	mov	ip, #12
    2700:	e001019c 	mul	r1, ip, r1
    2704:	e52de004 	push	{lr}		; (str lr, [sp, #-4]!)
    2708:	e3a0e000 	mov	lr, #0
    270c:	e7c0e001 	strb	lr, [r0, r1]
    2710:	e080c001 	add	ip, r0, r1
    2714:	e59f1028 	ldr	r1, [pc, #40]	; 2744 <_create_buffer_message+0x48>
    2718:	e3a00018 	mov	r0, #24
    271c:	e5911000 	ldr	r1, [r1]
    2720:	e5cc2002 	strb	r2, [ip, #2]
    2724:	e0221290 	mla	r2, r0, r2, r1
    2728:	e5cce001 	strb	lr, [ip, #1]
    272c:	e5d22014 	ldrb	r2, [r2, #20]
    2730:	e58c3004 	str	r3, [ip, #4]
    2734:	e59d3004 	ldr	r3, [sp, #4]
    2738:	e5cc2003 	strb	r2, [ip, #3]
    273c:	e58c3008 	str	r3, [ip, #8]
    2740:	e49df004 	pop	{pc}		; (ldr pc, [sp], #4)
    2744:	00404158 	.word	0x00404158

00002748 <_recording_dma_finished>:
    2748:	e92d401f 	push	{r0, r1, r2, r3, r4, lr}
    274c:	e59f4054 	ldr	r4, [pc, #84]	; 27a8 <_recording_dma_finished+0x60>
    2750:	e28d1004 	add	r1, sp, #4
    2754:	e5940000 	ldr	r0, [r4]
    2758:	eb00034a 	bl	3488 <circular_buffer_get_next>
    275c:	e28d1008 	add	r1, sp, #8
    2760:	e5940000 	ldr	r0, [r4]
    2764:	eb000347 	bl	3488 <circular_buffer_get_next>
    2768:	e28d100c 	add	r1, sp, #12
    276c:	e5940000 	ldr	r0, [r4]
    2770:	eb000344 	bl	3488 <circular_buffer_get_next>
    2774:	e59f1030 	ldr	r1, [pc, #48]	; 27ac <_recording_dma_finished+0x64>
    2778:	e5dd3004 	ldrb	r3, [sp, #4]
    277c:	e5911000 	ldr	r1, [r1]
    2780:	e3a00018 	mov	r0, #24
    2784:	e0231390 	mla	r3, r0, r3, r1
    2788:	e59d200c 	ldr	r2, [sp, #12]
    278c:	e59d1008 	ldr	r1, [sp, #8]
    2790:	e3520000 	cmp	r2, #0
    2794:	e5831008 	str	r1, [r3, #8]
    2798:	0a000000 	beq	27a0 <_recording_dma_finished+0x58>
    279c:	e12fff32 	blx	r2
    27a0:	e28dd010 	add	sp, sp, #16
    27a4:	e8bd8010 	pop	{r4, pc}
    27a8:	00404154 	.word	0x00404154
    27ac:	00404158 	.word	0x00404158

000027b0 <_buffering_in_handler>:
    27b0:	e1d031b0 	ldrh	r3, [r0, #16]
    27b4:	e1b02723 	lsrs	r2, r3, #14
    27b8:	0a000015 	beq	2814 <_buffering_in_handler+0x64>
    27bc:	e1a03903 	lsl	r3, r3, #18
    27c0:	e1a03923 	lsr	r3, r3, #18
    27c4:	e3530009 	cmp	r3, #9
    27c8:	1a000011 	bne	2814 <_buffering_in_handler+0x64>
    27cc:	e59f2084 	ldr	r2, [pc, #132]	; 2858 <_buffering_in_handler+0xa8>
    27d0:	e5d03013 	ldrb	r3, [r0, #19]
    27d4:	e5921000 	ldr	r1, [r2]
    27d8:	e1530001 	cmp	r3, r1
    27dc:	1a00000c 	bne	2814 <_buffering_in_handler+0x64>
    27e0:	e2833001 	add	r3, r3, #1
    27e4:	e20330ff 	and	r3, r3, #255	; 0xff
    27e8:	e92d40f0 	push	{r4, r5, r6, r7, lr}
    27ec:	e5823000 	str	r3, [r2]
    27f0:	e59f3064 	ldr	r3, [pc, #100]	; 285c <_buffering_in_handler+0xac>
    27f4:	e3a01000 	mov	r1, #0
    27f8:	e5d05012 	ldrb	r5, [r0, #18]
    27fc:	e5936000 	ldr	r6, [r3]
    2800:	e1a0c000 	mov	ip, r0
    2804:	e1a07001 	mov	r7, r1
    2808:	e1510005 	cmp	r1, r5
    280c:	3a000001 	bcc	2818 <_buffering_in_handler+0x68>
    2810:	e8bd40f0 	pop	{r4, r5, r6, r7, lr}
    2814:	ea000aab 	b	52c8 <__spin1_msg_free_from_arm>
    2818:	e5dc2016 	ldrb	r2, [ip, #22]
    281c:	e59c4018 	ldr	r4, [ip, #24]
    2820:	e0822082 	add	r2, r2, r2, lsl #1
    2824:	e086e182 	add	lr, r6, r2, lsl #3
    2828:	e59e300c 	ldr	r3, [lr, #12]
    282c:	e2811001 	add	r1, r1, #1
    2830:	e0833004 	add	r3, r3, r4
    2834:	e59e4010 	ldr	r4, [lr, #16]
    2838:	e28cc008 	add	ip, ip, #8
    283c:	e1540003 	cmp	r4, r3
    2840:	97962182 	ldrls	r2, [r6, r2, lsl #3]
    2844:	e5ce7016 	strb	r7, [lr, #22]
    2848:	90444002 	subls	r4, r4, r2
    284c:	90433004 	subls	r3, r3, r4
    2850:	e58e300c 	str	r3, [lr, #12]
    2854:	eaffffeb 	b	2808 <_buffering_in_handler+0x58>
    2858:	0040429c 	.word	0x0040429c
    285c:	00404158 	.word	0x00404158

00002860 <_recording_write>:
    2860:	e92d47f3 	push	{r0, r1, r4, r5, r6, r7, r8, r9, sl, lr}
    2864:	e59d902c 	ldr	r9, [sp, #44]	; 0x2c
    2868:	e1a04000 	mov	r4, r0
    286c:	e3590000 	cmp	r9, #0
    2870:	e1a07002 	mov	r7, r2
    2874:	e1a08003 	mov	r8, r3
    2878:	e59d6028 	ldr	r6, [sp, #40]	; 0x28
    287c:	0a000018 	beq	28e4 <_recording_write+0x84>
    2880:	e59f5080 	ldr	r5, [pc, #128]	; 2908 <_recording_write+0xa8>
    2884:	e1a0a001 	mov	sl, r1
    2888:	e1a01000 	mov	r1, r0
    288c:	e5950000 	ldr	r0, [r5]
    2890:	eb0002e7 	bl	3434 <circular_buffer_add>
    2894:	e1a01006 	mov	r1, r6
    2898:	e5950000 	ldr	r0, [r5]
    289c:	eb0002e4 	bl	3434 <circular_buffer_add>
    28a0:	e5950000 	ldr	r0, [r5]
    28a4:	e1a01009 	mov	r1, r9
    28a8:	eb0002e1 	bl	3434 <circular_buffer_add>
    28ac:	e3a05001 	mov	r5, #1
    28b0:	e3a0400f 	mov	r4, #15
    28b4:	e58d8000 	str	r8, [sp]
    28b8:	e1a03005 	mov	r3, r5
    28bc:	e1a0200a 	mov	r2, sl
    28c0:	e1a01007 	mov	r1, r7
    28c4:	e1a00004 	mov	r0, r4
    28c8:	fa000817 	blx	492c <spin1_dma_transfer>
    28cc:	e3500000 	cmp	r0, #0
    28d0:	0a000001 	beq	28dc <_recording_write+0x7c>
    28d4:	e28dd008 	add	sp, sp, #8
    28d8:	e8bd87f0 	pop	{r4, r5, r6, r7, r8, r9, sl, pc}
    28dc:	ebfff63f 	bl	1e0 <cpu_wfi>
    28e0:	eafffff3 	b	28b4 <_recording_write+0x54>
    28e4:	e1a02003 	mov	r2, r3
    28e8:	e1a00007 	mov	r0, r7
    28ec:	fa000837 	blx	49d0 <spin1_memcpy>
    28f0:	e59f3014 	ldr	r3, [pc, #20]	; 290c <_recording_write+0xac>
    28f4:	e0844084 	add	r4, r4, r4, lsl #1
    28f8:	e5933000 	ldr	r3, [r3]
    28fc:	e0834184 	add	r4, r3, r4, lsl #3
    2900:	e5846008 	str	r6, [r4, #8]
    2904:	eafffff2 	b	28d4 <_recording_write+0x74>
    2908:	00404154 	.word	0x00404154
    290c:	00404158 	.word	0x00404158

00002910 <recording_record_and_notify>:
    2910:	e92d4ff0 	push	{r4, r5, r6, r7, r8, r9, sl, fp, lr}
    2914:	e59fa1b8 	ldr	sl, [pc, #440]	; 2ad4 <recording_record_and_notify+0x1c4>
    2918:	e0806080 	add	r6, r0, r0, lsl #1
    291c:	e59ac000 	ldr	ip, [sl]
    2920:	e1a06186 	lsl	r6, r6, #3
    2924:	e79c4006 	ldr	r4, [ip, r6]
    2928:	e24dd014 	sub	sp, sp, #20
    292c:	e1a0e003 	mov	lr, r3
    2930:	e3540000 	cmp	r4, #0
    2934:	e08c3006 	add	r3, ip, r6
    2938:	e58d300c 	str	r3, [sp, #12]
    293c:	0a000060 	beq	2ac4 <recording_record_and_notify+0x1b4>
    2940:	e1a05002 	mov	r5, r2
    2944:	e1a07000 	mov	r7, r0
    2948:	e58de008 	str	lr, [sp, #8]
    294c:	e1a08001 	mov	r8, r1
    2950:	ebffff51 	bl	269c <compute_available_space_in_channel>
    2954:	e59d300c 	ldr	r3, [sp, #12]
    2958:	e1550000 	cmp	r5, r0
    295c:	8a00004b 	bhi	2a90 <recording_record_and_notify+0x180>
    2960:	e5930004 	ldr	r0, [r3, #4]
    2964:	e593200c 	ldr	r2, [r3, #12]
    2968:	e1a0900a 	mov	r9, sl
    296c:	e1500002 	cmp	r0, r2
    2970:	e593b010 	ldr	fp, [r3, #16]
    2974:	8a000003 	bhi	2988 <recording_record_and_notify+0x78>
    2978:	e5d33016 	ldrb	r3, [r3, #22]
    297c:	e3530000 	cmp	r3, #0
    2980:	01500002 	cmpeq	r0, r2
    2984:	1a00002d 	bne	2a40 <recording_record_and_notify+0x130>
    2988:	e04ba000 	sub	sl, fp, r0
    298c:	e155000a 	cmp	r5, sl
    2990:	8a000011 	bhi	29dc <recording_record_and_notify+0xcc>
    2994:	e080a005 	add	sl, r0, r5
    2998:	e59d3008 	ldr	r3, [sp, #8]
    299c:	e58d3004 	str	r3, [sp, #4]
    29a0:	e58da000 	str	sl, [sp]
    29a4:	e1a03005 	mov	r3, r5
    29a8:	e1a02000 	mov	r2, r0
    29ac:	e1a01008 	mov	r1, r8
    29b0:	e1a00007 	mov	r0, r7
    29b4:	ebffffa9 	bl	2860 <_recording_write>
    29b8:	e5993000 	ldr	r3, [r9]
    29bc:	e15b000a 	cmp	fp, sl
    29c0:	91a0a004 	movls	sl, r4
    29c4:	e0836006 	add	r6, r3, r6
    29c8:	e586a004 	str	sl, [r6, #4]
    29cc:	e3a00001 	mov	r0, #1
    29d0:	e5c60016 	strb	r0, [r6, #22]
    29d4:	e28dd014 	add	sp, sp, #20
    29d8:	e8bd8ff0 	pop	{r4, r5, r6, r7, r8, r9, sl, fp, pc}
    29dc:	e04a3004 	sub	r3, sl, r4
    29e0:	e0822003 	add	r2, r2, r3
    29e4:	e1550002 	cmp	r5, r2
    29e8:	8a000037 	bhi	2acc <recording_record_and_notify+0x1bc>
    29ec:	e1a0200a 	mov	r2, sl
    29f0:	e1a01008 	mov	r1, r8
    29f4:	fa0007f5 	blx	49d0 <spin1_memcpy>
    29f8:	e5993000 	ldr	r3, [r9]
    29fc:	e59d2008 	ldr	r2, [sp, #8]
    2a00:	e0833006 	add	r3, r3, r6
    2a04:	e5834008 	str	r4, [r3, #8]
    2a08:	e045300a 	sub	r3, r5, sl
    2a0c:	e0845003 	add	r5, r4, r3
    2a10:	e58d2004 	str	r2, [sp, #4]
    2a14:	e58d5000 	str	r5, [sp]
    2a18:	e1a02004 	mov	r2, r4
    2a1c:	e088100a 	add	r1, r8, sl
    2a20:	e1a00007 	mov	r0, r7
    2a24:	ebffff8d 	bl	2860 <_recording_write>
    2a28:	e5993000 	ldr	r3, [r9]
    2a2c:	e15b0005 	cmp	fp, r5
    2a30:	01a05004 	moveq	r5, r4
    2a34:	e0836006 	add	r6, r3, r6
    2a38:	e5865004 	str	r5, [r6, #4]
    2a3c:	eaffffe2 	b	29cc <recording_record_and_notify+0xbc>
    2a40:	e1500002 	cmp	r0, r2
    2a44:	2a000020 	bcs	2acc <recording_record_and_notify+0x1bc>
    2a48:	e0422000 	sub	r2, r2, r0
    2a4c:	e1550002 	cmp	r5, r2
    2a50:	8a00001d 	bhi	2acc <recording_record_and_notify+0x1bc>
    2a54:	e0809005 	add	r9, r0, r5
    2a58:	e59d3008 	ldr	r3, [sp, #8]
    2a5c:	e58d3004 	str	r3, [sp, #4]
    2a60:	e58d9000 	str	r9, [sp]
    2a64:	e1a03005 	mov	r3, r5
    2a68:	e1a02000 	mov	r2, r0
    2a6c:	e1a01008 	mov	r1, r8
    2a70:	e1a00007 	mov	r0, r7
    2a74:	ebffff79 	bl	2860 <_recording_write>
    2a78:	e59a3000 	ldr	r3, [sl]
    2a7c:	e15b0009 	cmp	fp, r9
    2a80:	01a09004 	moveq	r9, r4
    2a84:	e0836006 	add	r6, r3, r6
    2a88:	e5869004 	str	r9, [r6, #4]
    2a8c:	eaffffce 	b	29cc <recording_record_and_notify+0xbc>
    2a90:	e5d34015 	ldrb	r4, [r3, #21]
    2a94:	e3540000 	cmp	r4, #0
    2a98:	1a000009 	bne	2ac4 <recording_record_and_notify+0x1b4>
    2a9c:	e59f3034 	ldr	r3, [pc, #52]	; 2ad8 <recording_record_and_notify+0x1c8>
    2aa0:	e58d7000 	str	r7, [sp]
    2aa4:	e59f2030 	ldr	r2, [pc, #48]	; 2adc <recording_record_and_notify+0x1cc>
    2aa8:	e59f1030 	ldr	r1, [pc, #48]	; 2ae0 <recording_record_and_notify+0x1d0>
    2aac:	e3a00002 	mov	r0, #2
    2ab0:	fa000559 	blx	401c <io_printf>
    2ab4:	e59a3000 	ldr	r3, [sl]
    2ab8:	e0836006 	add	r6, r3, r6
    2abc:	e3a03001 	mov	r3, #1
    2ac0:	e5c63015 	strb	r3, [r6, #21]
    2ac4:	e3a00000 	mov	r0, #0
    2ac8:	eaffffc1 	b	29d4 <recording_record_and_notify+0xc4>
    2acc:	e3a00001 	mov	r0, #1
    2ad0:	eaffffbf 	b	29d4 <recording_record_and_notify+0xc4>
    2ad4:	00404158 	.word	0x00404158
    2ad8:	000001b6 	.word	0x000001b6
    2adc:	0000694a 	.word	0x0000694a
    2ae0:	0000695a 	.word	0x0000695a

00002ae4 <_recording_buffer_state_data_write>:
    2ae4:	e92d41f0 	push	{r4, r5, r6, r7, r8, lr}
    2ae8:	e59f504c 	ldr	r5, [pc, #76]	; 2b3c <_recording_buffer_state_data_write+0x58>
    2aec:	e59f604c 	ldr	r6, [pc, #76]	; 2b40 <_recording_buffer_state_data_write+0x5c>
    2af0:	e59f704c 	ldr	r7, [pc, #76]	; 2b44 <_recording_buffer_state_data_write+0x60>
    2af4:	e3a04000 	mov	r4, #0
    2af8:	e5953000 	ldr	r3, [r5]
    2afc:	e1540003 	cmp	r4, r3
    2b00:	3a000005 	bcc	2b1c <_recording_buffer_state_data_write+0x38>
    2b04:	e59f303c 	ldr	r3, [pc, #60]	; 2b48 <_recording_buffer_state_data_write+0x64>
    2b08:	e59f203c 	ldr	r2, [pc, #60]	; 2b4c <_recording_buffer_state_data_write+0x68>
    2b0c:	e5933000 	ldr	r3, [r3]
    2b10:	e5922000 	ldr	r2, [r2]
    2b14:	e5832000 	str	r2, [r3]
    2b18:	e8bd81f0 	pop	{r4, r5, r6, r7, r8, pc}
    2b1c:	e5961000 	ldr	r1, [r6]
    2b20:	e5973000 	ldr	r3, [r7]
    2b24:	e3a02018 	mov	r2, #24
    2b28:	e0211492 	mla	r1, r2, r4, r1
    2b2c:	e7930104 	ldr	r0, [r3, r4, lsl #2]
    2b30:	fa0007a6 	blx	49d0 <spin1_memcpy>
    2b34:	e2844001 	add	r4, r4, #1
    2b38:	eaffffee 	b	2af8 <_recording_buffer_state_data_write+0x14>
    2b3c:	00404288 	.word	0x00404288
    2b40:	00404158 	.word	0x00404158
    2b44:	0040428c 	.word	0x0040428c
    2b48:	0040415c 	.word	0x0040415c
    2b4c:	0040429c 	.word	0x0040429c

00002b50 <recording_finalise>:
    2b50:	e92d40f7 	push	{r0, r1, r2, r4, r5, r6, r7, lr}
    2b54:	e59f50b4 	ldr	r5, [pc, #180]	; 2c10 <recording_finalise+0xc0>
    2b58:	e5950000 	ldr	r0, [r5]
    2b5c:	eb000268 	bl	3504 <circular_buffer_size>
    2b60:	e2504000 	subs	r4, r0, #0
    2b64:	1a000007 	bne	2b88 <recording_finalise+0x38>
    2b68:	ebffffdd 	bl	2ae4 <_recording_buffer_state_data_write>
    2b6c:	e59f70a0 	ldr	r7, [pc, #160]	; 2c14 <recording_finalise+0xc4>
    2b70:	e59f60a0 	ldr	r6, [pc, #160]	; 2c18 <recording_finalise+0xc8>
    2b74:	e5973000 	ldr	r3, [r7]
    2b78:	e1540003 	cmp	r4, r3
    2b7c:	3a000003 	bcc	2b90 <recording_finalise+0x40>
    2b80:	e28dd00c 	add	sp, sp, #12
    2b84:	e8bd80f0 	pop	{r4, r5, r6, r7, pc}
    2b88:	ebfff594 	bl	1e0 <cpu_wfi>
    2b8c:	eafffff1 	b	2b58 <recording_finalise+0x8>
    2b90:	e20450ff 	and	r5, r4, #255	; 0xff
    2b94:	e3a03018 	mov	r3, #24
    2b98:	e0050593 	mul	r5, r3, r5
    2b9c:	e5962000 	ldr	r2, [r6]
    2ba0:	e7921005 	ldr	r1, [r2, r5]
    2ba4:	e3510000 	cmp	r1, #0
    2ba8:	0a000016 	beq	2c08 <recording_finalise+0xb8>
    2bac:	e0232394 	mla	r3, r4, r3, r2
    2bb0:	e3a00002 	mov	r0, #2
    2bb4:	e5d33015 	ldrb	r3, [r3, #21]
    2bb8:	e58d4000 	str	r4, [sp]
    2bbc:	e3530000 	cmp	r3, #0
    2bc0:	159f3054 	ldrne	r3, [pc, #84]	; 2c1c <recording_finalise+0xcc>
    2bc4:	159f2054 	ldrne	r2, [pc, #84]	; 2c20 <recording_finalise+0xd0>
    2bc8:	159f1054 	ldrne	r1, [pc, #84]	; 2c24 <recording_finalise+0xd4>
    2bcc:	059f3054 	ldreq	r3, [pc, #84]	; 2c28 <recording_finalise+0xd8>
    2bd0:	059f2048 	ldreq	r2, [pc, #72]	; 2c20 <recording_finalise+0xd0>
    2bd4:	059f1050 	ldreq	r1, [pc, #80]	; 2c2c <recording_finalise+0xdc>
    2bd8:	fa00050f 	blx	401c <io_printf>
    2bdc:	e5962000 	ldr	r2, [r6]
    2be0:	e3a03000 	mov	r3, #0
    2be4:	e0821005 	add	r1, r2, r5
    2be8:	e7823005 	str	r3, [r2, r5]
    2bec:	e3a00002 	mov	r0, #2
    2bf0:	e5813010 	str	r3, [r1, #16]
    2bf4:	e59f2024 	ldr	r2, [pc, #36]	; 2c20 <recording_finalise+0xd0>
    2bf8:	e58d4000 	str	r4, [sp]
    2bfc:	e59f302c 	ldr	r3, [pc, #44]	; 2c30 <recording_finalise+0xe0>
    2c00:	e59f102c 	ldr	r1, [pc, #44]	; 2c34 <recording_finalise+0xe4>
    2c04:	fa000504 	blx	401c <io_printf>
    2c08:	e2844001 	add	r4, r4, #1
    2c0c:	eaffffd8 	b	2b74 <recording_finalise+0x24>
    2c10:	00404154 	.word	0x00404154
    2c14:	00404288 	.word	0x00404288
    2c18:	00404158 	.word	0x00404158
    2c1c:	000001f9 	.word	0x000001f9
    2c20:	0000694a 	.word	0x0000694a
    2c24:	000066ea 	.word	0x000066ea
    2c28:	000001fd 	.word	0x000001fd
    2c2c:	00006758 	.word	0x00006758
    2c30:	00000202 	.word	0x00000202
    2c34:	000067a1 	.word	0x000067a1

00002c38 <recording_reset>:
    2c38:	e92d40f0 	push	{r4, r5, r6, r7, lr}
    2c3c:	e59f60f0 	ldr	r6, [pc, #240]	; 2d34 <recording_reset+0xfc>
    2c40:	e59f70f0 	ldr	r7, [pc, #240]	; 2d38 <recording_reset+0x100>
    2c44:	e59f50f0 	ldr	r5, [pc, #240]	; 2d3c <recording_reset+0x104>
    2c48:	e24dd014 	sub	sp, sp, #20
    2c4c:	e3a04000 	mov	r4, #0
    2c50:	e5963000 	ldr	r3, [r6]
    2c54:	e1540003 	cmp	r4, r3
    2c58:	3a000002 	bcc	2c68 <recording_reset+0x30>
    2c5c:	e28dd014 	add	sp, sp, #20
    2c60:	e8bd40f0 	pop	{r4, r5, r6, r7, lr}
    2c64:	eaffff9e 	b	2ae4 <_recording_buffer_state_data_write>
    2c68:	e5973000 	ldr	r3, [r7]
    2c6c:	e7933104 	ldr	r3, [r3, r4, lsl #2]
    2c70:	e3530000 	cmp	r3, #0
    2c74:	0a00001b 	beq	2ce8 <recording_reset+0xb0>
    2c78:	e59f20c0 	ldr	r2, [pc, #192]	; 2d40 <recording_reset+0x108>
    2c7c:	e3a00018 	mov	r0, #24
    2c80:	e5922000 	ldr	r2, [r2]
    2c84:	e0000094 	mul	r0, r4, r0
    2c88:	e7922104 	ldr	r2, [r2, r4, lsl #2]
    2c8c:	e595c000 	ldr	ip, [r5]
    2c90:	e2822018 	add	r2, r2, #24
    2c94:	e78c2000 	str	r2, [ip, r0]
    2c98:	e08c1000 	add	r1, ip, r0
    2c9c:	e0820003 	add	r0, r2, r3
    2ca0:	e5810010 	str	r0, [r1, #16]
    2ca4:	e3a00000 	mov	r0, #0
    2ca8:	e5812004 	str	r2, [r1, #4]
    2cac:	e5812008 	str	r2, [r1, #8]
    2cb0:	e581200c 	str	r2, [r1, #12]
    2cb4:	e5c10016 	strb	r0, [r1, #22]
    2cb8:	e5c10015 	strb	r0, [r1, #21]
    2cbc:	e5c14014 	strb	r4, [r1, #20]
    2cc0:	e3a00002 	mov	r0, #2
    2cc4:	e58d2008 	str	r2, [sp, #8]
    2cc8:	e58d3004 	str	r3, [sp, #4]
    2ccc:	e58d4000 	str	r4, [sp]
    2cd0:	e59f306c 	ldr	r3, [pc, #108]	; 2d44 <recording_reset+0x10c>
    2cd4:	e59f206c 	ldr	r2, [pc, #108]	; 2d48 <recording_reset+0x110>
    2cd8:	e59f106c 	ldr	r1, [pc, #108]	; 2d4c <recording_reset+0x114>
    2cdc:	fa0004ce 	blx	401c <io_printf>
    2ce0:	e2844001 	add	r4, r4, #1
    2ce4:	eaffffd9 	b	2c50 <recording_reset+0x18>
    2ce8:	e3a01018 	mov	r1, #24
    2cec:	e0010194 	mul	r1, r4, r1
    2cf0:	e5950000 	ldr	r0, [r5]
    2cf4:	e0802001 	add	r2, r0, r1
    2cf8:	e7803001 	str	r3, [r0, r1]
    2cfc:	e5823004 	str	r3, [r2, #4]
    2d00:	e5823008 	str	r3, [r2, #8]
    2d04:	e582300c 	str	r3, [r2, #12]
    2d08:	e5823010 	str	r3, [r2, #16]
    2d0c:	e5c23016 	strb	r3, [r2, #22]
    2d10:	e5c24014 	strb	r4, [r2, #20]
    2d14:	e5c23015 	strb	r3, [r2, #21]
    2d18:	e59f1030 	ldr	r1, [pc, #48]	; 2d50 <recording_reset+0x118>
    2d1c:	e58d4000 	str	r4, [sp]
    2d20:	e59f302c 	ldr	r3, [pc, #44]	; 2d54 <recording_reset+0x11c>
    2d24:	e59f201c 	ldr	r2, [pc, #28]	; 2d48 <recording_reset+0x110>
    2d28:	e3a00002 	mov	r0, #2
    2d2c:	fa0004ba 	blx	401c <io_printf>
    2d30:	eaffffea 	b	2ce0 <recording_reset+0xa8>
    2d34:	00404288 	.word	0x00404288
    2d38:	00404290 	.word	0x00404290
    2d3c:	00404158 	.word	0x00404158
    2d40:	0040428c 	.word	0x0040428c
    2d44:	000002a6 	.word	0x000002a6
    2d48:	0000694a 	.word	0x0000694a
    2d4c:	0000699a 	.word	0x0000699a
    2d50:	000069fe 	.word	0x000069fe
    2d54:	000002b2 	.word	0x000002b2

00002d58 <recording_initialize>:
    2d58:	e92d4ff0 	push	{r4, r5, r6, r7, r8, r9, sl, fp, lr}
    2d5c:	e1a06000 	mov	r6, r0
    2d60:	e24dd024 	sub	sp, sp, #36	; 0x24
    2d64:	e3a00040 	mov	r0, #64	; 0x40
    2d68:	e1a09001 	mov	r9, r1
    2d6c:	eb000178 	bl	3354 <circular_buffer_initialize>
    2d70:	e59f3280 	ldr	r3, [pc, #640]	; 2ff8 <recording_initialize+0x2a0>
    2d74:	e596200c 	ldr	r2, [r6, #12]
    2d78:	e59f527c 	ldr	r5, [pc, #636]	; 2ffc <recording_initialize+0x2a4>
    2d7c:	e5961000 	ldr	r1, [r6]
    2d80:	e5851000 	str	r1, [r5]
    2d84:	e59fc274 	ldr	ip, [pc, #628]	; 3000 <recording_initialize+0x2a8>
    2d88:	e5830000 	str	r0, [r3]
    2d8c:	e5963004 	ldr	r3, [r6, #4]
    2d90:	e58d3014 	str	r3, [sp, #20]
    2d94:	e5963008 	ldr	r3, [r6, #8]
    2d98:	e58d301c 	str	r3, [sp, #28]
    2d9c:	e59f3260 	ldr	r3, [pc, #608]	; 3004 <recording_initialize+0x2ac>
    2da0:	e5960010 	ldr	r0, [r6, #16]
    2da4:	e5832000 	str	r2, [r3]
    2da8:	e59f2258 	ldr	r2, [pc, #600]	; 3008 <recording_initialize+0x2b0>
    2dac:	e58d3018 	str	r3, [sp, #24]
    2db0:	e5820000 	str	r0, [r2]
    2db4:	e5962014 	ldr	r2, [r6, #20]
    2db8:	e59f324c 	ldr	r3, [pc, #588]	; 300c <recording_initialize+0x2b4>
    2dbc:	e3520031 	cmp	r2, #49	; 0x31
    2dc0:	93a02032 	movls	r2, #50	; 0x32
    2dc4:	e5832000 	str	r2, [r3]
    2dc8:	e5933000 	ldr	r3, [r3]
    2dcc:	e58d300c 	str	r3, [sp, #12]
    2dd0:	e59d3014 	ldr	r3, [sp, #20]
    2dd4:	e2862018 	add	r2, r6, #24
    2dd8:	e20330ff 	and	r3, r3, #255	; 0xff
    2ddc:	e58c2000 	str	r2, [ip]
    2de0:	e88d000a 	stm	sp, {r1, r3}
    2de4:	e58d0008 	str	r0, [sp, #8]
    2de8:	e59f3220 	ldr	r3, [pc, #544]	; 3010 <recording_initialize+0x2b8>
    2dec:	e59f2220 	ldr	r2, [pc, #544]	; 3014 <recording_initialize+0x2bc>
    2df0:	e59f1220 	ldr	r1, [pc, #544]	; 3018 <recording_initialize+0x2c0>
    2df4:	e3a00002 	mov	r0, #2
    2df8:	fa000487 	blx	401c <io_printf>
    2dfc:	e5950000 	ldr	r0, [r5]
    2e00:	e1a00100 	lsl	r0, r0, #2
    2e04:	fa000741 	blx	4b10 <spin1_malloc>
    2e08:	e59f320c 	ldr	r3, [pc, #524]	; 301c <recording_initialize+0x2c4>
    2e0c:	e3500000 	cmp	r0, #0
    2e10:	e1a04000 	mov	r4, r0
    2e14:	e5830000 	str	r0, [r3]
    2e18:	1a000007 	bne	2e3c <recording_initialize+0xe4>
    2e1c:	e59f21f0 	ldr	r2, [pc, #496]	; 3014 <recording_initialize+0x2bc>
    2e20:	e59f11f8 	ldr	r1, [pc, #504]	; 3020 <recording_initialize+0x2c8>
    2e24:	e3a03f8f 	mov	r3, #572	; 0x23c
    2e28:	e3a00002 	mov	r0, #2
    2e2c:	fa00047a 	blx	401c <io_printf>
    2e30:	e1a00004 	mov	r0, r4
    2e34:	e28dd024 	add	sp, sp, #36	; 0x24
    2e38:	e8bd8ff0 	pop	{r4, r5, r6, r7, r8, r9, sl, fp, pc}
    2e3c:	e5950000 	ldr	r0, [r5]
    2e40:	e1a00100 	lsl	r0, r0, #2
    2e44:	fa000731 	blx	4b10 <spin1_malloc>
    2e48:	e59f31d4 	ldr	r3, [pc, #468]	; 3024 <recording_initialize+0x2cc>
    2e4c:	e3500000 	cmp	r0, #0
    2e50:	e1a04000 	mov	r4, r0
    2e54:	e5830000 	str	r0, [r3]
    2e58:	059f31c8 	ldreq	r3, [pc, #456]	; 3028 <recording_initialize+0x2d0>
    2e5c:	059f21b0 	ldreq	r2, [pc, #432]	; 3014 <recording_initialize+0x2bc>
    2e60:	059f11c4 	ldreq	r1, [pc, #452]	; 302c <recording_initialize+0x2d4>
    2e64:	0affffef 	beq	2e28 <recording_initialize+0xd0>
    2e68:	e3590000 	cmp	r9, #0
    2e6c:	e59fa1a8 	ldr	sl, [pc, #424]	; 301c <recording_initialize+0x2c4>
    2e70:	e59fb1ac 	ldr	fp, [pc, #428]	; 3024 <recording_initialize+0x2cc>
    2e74:	13a03000 	movne	r3, #0
    2e78:	e286801c 	add	r8, r6, #28
    2e7c:	e3a05000 	mov	r5, #0
    2e80:	15893000 	strne	r3, [r9]
    2e84:	e59f3170 	ldr	r3, [pc, #368]	; 2ffc <recording_initialize+0x2a4>
    2e88:	e5933000 	ldr	r3, [r3]
    2e8c:	e1550003 	cmp	r5, r3
    2e90:	3a00000c 	bcc	2ec8 <recording_initialize+0x170>
    2e94:	e3a01018 	mov	r1, #24
    2e98:	e0010193 	mul	r1, r3, r1
    2e9c:	e3a00001 	mov	r0, #1
    2ea0:	fa00039a 	blx	3d10 <sark_alloc>
    2ea4:	e59f3184 	ldr	r3, [pc, #388]	; 3030 <recording_initialize+0x2d8>
    2ea8:	e3500000 	cmp	r0, #0
    2eac:	e1a04000 	mov	r4, r0
    2eb0:	e5830000 	str	r0, [r3]
    2eb4:	1a00002d 	bne	2f70 <recording_initialize+0x218>
    2eb8:	e3a03f9a 	mov	r3, #616	; 0x268
    2ebc:	e59f2150 	ldr	r2, [pc, #336]	; 3014 <recording_initialize+0x2bc>
    2ec0:	e59f116c 	ldr	r1, [pc, #364]	; 3034 <recording_initialize+0x2dc>
    2ec4:	eaffffd7 	b	2e28 <recording_initialize+0xd0>
    2ec8:	e0853003 	add	r3, r5, r3
    2ecc:	e2833007 	add	r3, r3, #7
    2ed0:	e7967103 	ldr	r7, [r6, r3, lsl #2]
    2ed4:	e3570000 	cmp	r7, #0
    2ed8:	0a00001e 	beq	2f58 <recording_initialize+0x200>
    2edc:	e59b3000 	ldr	r3, [fp]
    2ee0:	e3a02000 	mov	r2, #0
    2ee4:	e7837105 	str	r7, [r3, r5, lsl #2]
    2ee8:	e5d2305c 	ldrb	r3, [r2, #92]	; 0x5c
    2eec:	e59f0144 	ldr	r0, [pc, #324]	; 3038 <recording_initialize+0x2e0>
    2ef0:	e1a03403 	lsl	r3, r3, #8
    2ef4:	e2833003 	add	r3, r3, #3
    2ef8:	e2871018 	add	r1, r7, #24
    2efc:	e590004c 	ldr	r0, [r0, #76]	; 0x4c
    2f00:	e59a4000 	ldr	r4, [sl]
    2f04:	fa00034e 	blx	3c44 <sark_xalloc>
    2f08:	e59a3000 	ldr	r3, [sl]
    2f0c:	e7840105 	str	r0, [r4, r5, lsl #2]
    2f10:	e7934105 	ldr	r4, [r3, r5, lsl #2]
    2f14:	e3540000 	cmp	r4, #0
    2f18:	1a000006 	bne	2f38 <recording_initialize+0x1e0>
    2f1c:	e88d00a0 	stm	sp, {r5, r7}
    2f20:	e59f3114 	ldr	r3, [pc, #276]	; 303c <recording_initialize+0x2e4>
    2f24:	e59f20e8 	ldr	r2, [pc, #232]	; 3014 <recording_initialize+0x2bc>
    2f28:	e59f1110 	ldr	r1, [pc, #272]	; 3040 <recording_initialize+0x2e8>
    2f2c:	e3a00002 	mov	r0, #2
    2f30:	fa000439 	blx	401c <io_printf>
    2f34:	eaffffbd 	b	2e30 <recording_initialize+0xd8>
    2f38:	e5884000 	str	r4, [r8]
    2f3c:	e5993000 	ldr	r3, [r9]
    2f40:	e3a02001 	mov	r2, #1
    2f44:	e1833512 	orr	r3, r3, r2, lsl r5
    2f48:	e5893000 	str	r3, [r9]
    2f4c:	e2855001 	add	r5, r5, #1
    2f50:	e2888004 	add	r8, r8, #4
    2f54:	eaffffca 	b	2e84 <recording_initialize+0x12c>
    2f58:	e59a3000 	ldr	r3, [sl]
    2f5c:	e5887000 	str	r7, [r8]
    2f60:	e7837105 	str	r7, [r3, r5, lsl #2]
    2f64:	e59b3000 	ldr	r3, [fp]
    2f68:	e7837105 	str	r7, [r3, r5, lsl #2]
    2f6c:	eafffff6 	b	2f4c <recording_initialize+0x1f4>
    2f70:	e59f40cc 	ldr	r4, [pc, #204]	; 3044 <recording_initialize+0x2ec>
    2f74:	ebffff2f 	bl	2c38 <recording_reset>
    2f78:	e59f30c8 	ldr	r3, [pc, #200]	; 3048 <recording_initialize+0x2f0>
    2f7c:	e2842010 	add	r2, r4, #16
    2f80:	e5832000 	str	r2, [r3]
    2f84:	e59f30c0 	ldr	r3, [pc, #192]	; 304c <recording_initialize+0x2f4>
    2f88:	e2842014 	add	r2, r4, #20
    2f8c:	e5832000 	str	r2, [r3]
    2f90:	e3a03007 	mov	r3, #7
    2f94:	e5c43008 	strb	r3, [r4, #8]
    2f98:	e5dd3014 	ldrb	r3, [sp, #20]
    2f9c:	e5c43009 	strb	r3, [r4, #9]
    2fa0:	e3e03000 	mvn	r3, #0
    2fa4:	e5c4300a 	strb	r3, [r4, #10]
    2fa8:	e59d3018 	ldr	r3, [sp, #24]
    2fac:	e5935000 	ldr	r5, [r3]
    2fb0:	fa0006d0 	blx	4af8 <spin1_get_core_id>
    2fb4:	e1a05285 	lsl	r5, r5, #5
    2fb8:	e20550ff 	and	r5, r5, #255	; 0xff
    2fbc:	e1dd31bc 	ldrh	r3, [sp, #28]
    2fc0:	e1c430bc 	strh	r3, [r4, #12]
    2fc4:	e1850000 	orr	r0, r5, r0
    2fc8:	e5c4000b 	strb	r0, [r4, #11]
    2fcc:	fa0006cc 	blx	4b04 <spin1_get_chip_id>
    2fd0:	e59d3018 	ldr	r3, [sp, #24]
    2fd4:	e59f1074 	ldr	r1, [pc, #116]	; 3050 <recording_initialize+0x2f8>
    2fd8:	e1c400be 	strh	r0, [r4, #14]
    2fdc:	e5930000 	ldr	r0, [r3]
    2fe0:	ebfffd41 	bl	24ec <simulation_sdp_callback_on>
    2fe4:	e59f1068 	ldr	r1, [pc, #104]	; 3054 <recording_initialize+0x2fc>
    2fe8:	e3a0000f 	mov	r0, #15
    2fec:	ebfffd51 	bl	2538 <simulation_dma_transfer_done_callback_on>
    2ff0:	e3a04001 	mov	r4, #1
    2ff4:	eaffff8d 	b	2e30 <recording_initialize+0xd8>
    2ff8:	00404154 	.word	0x00404154
    2ffc:	00404288 	.word	0x00404288
    3000:	0040415c 	.word	0x0040415c
    3004:	00404298 	.word	0x00404298
    3008:	0040414c 	.word	0x0040414c
    300c:	004042a0 	.word	0x004042a0
    3010:	00000236 	.word	0x00000236
    3014:	0000694a 	.word	0x0000694a
    3018:	000067c9 	.word	0x000067c9
    301c:	0040428c 	.word	0x0040428c
    3020:	0000683a 	.word	0x0000683a
    3024:	00404290 	.word	0x00404290
    3028:	00000242 	.word	0x00000242
    302c:	00006880 	.word	0x00006880
    3030:	00404158 	.word	0x00404158
    3034:	00006907 	.word	0x00006907
    3038:	e5007f00 	.word	0xe5007f00
    303c:	00000259 	.word	0x00000259
    3040:	000068bf 	.word	0x000068bf
    3044:	00404164 	.word	0x00404164
    3048:	00404294 	.word	0x00404294
    304c:	00404150 	.word	0x00404150
    3050:	000027b0 	.word	0x000027b0
    3054:	00002748 	.word	0x00002748

00003058 <recording_do_timestep_update>:
    3058:	e59f21d4 	ldr	r2, [pc, #468]	; 3234 <recording_do_timestep_update+0x1dc>
    305c:	e59f11d4 	ldr	r1, [pc, #468]	; 3238 <recording_do_timestep_update+0x1e0>
    3060:	e5923000 	ldr	r3, [r2]
    3064:	e5911000 	ldr	r1, [r1]
    3068:	e0403003 	sub	r3, r0, r3
    306c:	e92d4ff0 	push	{r4, r5, r6, r7, r8, r9, sl, fp, lr}
    3070:	e1530001 	cmp	r3, r1
    3074:	e24dd024 	sub	sp, sp, #36	; 0x24
    3078:	e58d2018 	str	r2, [sp, #24]
    307c:	9a000023 	bls	3110 <recording_do_timestep_update+0xb8>
    3080:	e3a05000 	mov	r5, #0
    3084:	e59f91b0 	ldr	r9, [pc, #432]	; 323c <recording_do_timestep_update+0x1e4>
    3088:	e59fa1b0 	ldr	sl, [pc, #432]	; 3240 <recording_do_timestep_update+0x1e8>
    308c:	e59fb1b0 	ldr	fp, [pc, #432]	; 3244 <recording_do_timestep_update+0x1ec>
    3090:	e1a04005 	mov	r4, r5
    3094:	e58d001c 	str	r0, [sp, #28]
    3098:	e5993000 	ldr	r3, [r9]
    309c:	e1550003 	cmp	r5, r3
    30a0:	3a00001c 	bcc	3118 <recording_do_timestep_update+0xc0>
    30a4:	e3540000 	cmp	r4, #0
    30a8:	0a000015 	beq	3104 <recording_do_timestep_update+0xac>
    30ac:	e59f3194 	ldr	r3, [pc, #404]	; 3248 <recording_do_timestep_update+0x1f0>
    30b0:	e5935000 	ldr	r5, [r3]
    30b4:	e59f3190 	ldr	r3, [pc, #400]	; 324c <recording_do_timestep_update+0x1f4>
    30b8:	e1c530b0 	strh	r3, [r5]
    30bc:	fa000690 	blx	4b04 <spin1_get_chip_id>
    30c0:	e1c500b2 	strh	r0, [r5, #2]
    30c4:	e59f5184 	ldr	r5, [pc, #388]	; 3250 <recording_do_timestep_update+0x1f8>
    30c8:	e5956000 	ldr	r6, [r5]
    30cc:	fa000689 	blx	4af8 <spin1_get_core_id>
    30d0:	e59f217c 	ldr	r2, [pc, #380]	; 3254 <recording_do_timestep_update+0x1fc>
    30d4:	e5953000 	ldr	r3, [r5]
    30d8:	e5922000 	ldr	r2, [r2]
    30dc:	e3a01001 	mov	r1, #1
    30e0:	e1840180 	orr	r0, r4, r0, lsl #3
    30e4:	e5c60000 	strb	r0, [r6]
    30e8:	e5c32001 	strb	r2, [r3, #1]
    30ec:	e3a0300c 	mov	r3, #12
    30f0:	e0040493 	mul	r4, r3, r4
    30f4:	e59f015c 	ldr	r0, [pc, #348]	; 3258 <recording_do_timestep_update+0x200>
    30f8:	e2844014 	add	r4, r4, #20
    30fc:	e1c040b4 	strh	r4, [r0, #4]
    3100:	fa00046b 	blx	42b4 <spin1_send_sdp_msg>
    3104:	e59d3018 	ldr	r3, [sp, #24]
    3108:	e59d201c 	ldr	r2, [sp, #28]
    310c:	e5832000 	str	r2, [r3]
    3110:	e28dd024 	add	sp, sp, #36	; 0x24
    3114:	e8bd8ff0 	pop	{r4, r5, r6, r7, r8, r9, sl, fp, pc}
    3118:	e20570ff 	and	r7, r5, #255	; 0xff
    311c:	e1a00007 	mov	r0, r7
    3120:	ebfffd5d 	bl	269c <compute_available_space_in_channel>
    3124:	e3a03018 	mov	r3, #24
    3128:	e0070793 	mul	r7, r3, r7
    312c:	e59a6000 	ldr	r6, [sl]
    3130:	e7962007 	ldr	r2, [r6, r7]
    3134:	e3520000 	cmp	r2, #0
    3138:	0a000014 	beq	3190 <recording_do_timestep_update+0x138>
    313c:	e0030395 	mul	r3, r5, r3
    3140:	e0862003 	add	r2, r6, r3
    3144:	e5921010 	ldr	r1, [r2, #16]
    3148:	e7967003 	ldr	r7, [r6, r3]
    314c:	e0413007 	sub	r3, r1, r7
    3150:	e0430000 	sub	r0, r3, r0
    3154:	e59b3000 	ldr	r3, [fp]
    3158:	e1500003 	cmp	r0, r3
    315c:	3a00000b 	bcc	3190 <recording_do_timestep_update+0x138>
    3160:	e5926008 	ldr	r6, [r2, #8]
    3164:	e592300c 	ldr	r3, [r2, #12]
    3168:	e1560003 	cmp	r6, r3
    316c:	9a000009 	bls	3198 <recording_do_timestep_update+0x140>
    3170:	e59f00d8 	ldr	r0, [pc, #216]	; 3250 <recording_do_timestep_update+0x1f8>
    3174:	e0466003 	sub	r6, r6, r3
    3178:	e58d6000 	str	r6, [sp]
    317c:	e1a01004 	mov	r1, r4
    3180:	e1a02005 	mov	r2, r5
    3184:	e5900000 	ldr	r0, [r0]
    3188:	ebfffd5b 	bl	26fc <_create_buffer_message>
    318c:	e2844001 	add	r4, r4, #1
    3190:	e2855001 	add	r5, r5, #1
    3194:	eaffffbf 	b	3098 <recording_do_timestep_update+0x40>
    3198:	3a000007 	bcc	31bc <recording_do_timestep_update+0x164>
    319c:	e5d22016 	ldrb	r2, [r2, #22]
    31a0:	03a00001 	moveq	r0, #1
    31a4:	13a00000 	movne	r0, #0
    31a8:	e3520001 	cmp	r2, #1
    31ac:	13a00000 	movne	r0, #0
    31b0:	02000001 	andeq	r0, r0, #1
    31b4:	e3500000 	cmp	r0, #0
    31b8:	0a000010 	beq	3200 <recording_do_timestep_update+0x1a8>
    31bc:	e59f208c 	ldr	r2, [pc, #140]	; 3250 <recording_do_timestep_update+0x1f8>
    31c0:	e0411003 	sub	r1, r1, r3
    31c4:	e5928000 	ldr	r8, [r2]
    31c8:	e0466007 	sub	r6, r6, r7
    31cc:	e58d1000 	str	r1, [sp]
    31d0:	e1a02005 	mov	r2, r5
    31d4:	e1a01004 	mov	r1, r4
    31d8:	e1a00008 	mov	r0, r8
    31dc:	ebfffd46 	bl	26fc <_create_buffer_message>
    31e0:	e2841001 	add	r1, r4, #1
    31e4:	e58d6000 	str	r6, [sp]
    31e8:	e1a03007 	mov	r3, r7
    31ec:	e1a02005 	mov	r2, r5
    31f0:	e1a00008 	mov	r0, r8
    31f4:	ebfffd40 	bl	26fc <_create_buffer_message>
    31f8:	e2844002 	add	r4, r4, #2
    31fc:	eaffffe3 	b	3190 <recording_do_timestep_update+0x138>
    3200:	e16f2f12 	clz	r2, r2
    3204:	e1a022a2 	lsr	r2, r2, #5
    3208:	e58d2014 	str	r2, [sp, #20]
    320c:	e58d300c 	str	r3, [sp, #12]
    3210:	e58d1008 	str	r1, [sp, #8]
    3214:	e58d6010 	str	r6, [sp, #16]
    3218:	e88d00a0 	stm	sp, {r5, r7}
    321c:	e3a03f61 	mov	r3, #388	; 0x184
    3220:	e59f2034 	ldr	r2, [pc, #52]	; 325c <recording_do_timestep_update+0x204>
    3224:	e59f1034 	ldr	r1, [pc, #52]	; 3260 <recording_do_timestep_update+0x208>
    3228:	e3a00002 	mov	r0, #2
    322c:	fa00037a 	blx	401c <io_printf>
    3230:	eaffffd6 	b	3190 <recording_do_timestep_update+0x138>
    3234:	00404160 	.word	0x00404160
    3238:	004042a0 	.word	0x004042a0
    323c:	00404288 	.word	0x00404288
    3240:	00404158 	.word	0x00404158
    3244:	0040414c 	.word	0x0040414c
    3248:	00404294 	.word	0x00404294
    324c:	00004008 	.word	0x00004008
    3250:	00404150 	.word	0x00404150
    3254:	0040429c 	.word	0x0040429c
    3258:	00404164 	.word	0x00404164
    325c:	0000694a 	.word	0x0000694a
    3260:	0000664e 	.word	0x0000664e

00003264 <profiler_init>:
    3264:	e92d4037 	push	{r0, r1, r2, r4, r5, lr}
    3268:	e3a03011 	mov	r3, #17
    326c:	e1a04000 	mov	r4, r0
    3270:	e58d0000 	str	r0, [sp]
    3274:	e59f2064 	ldr	r2, [pc, #100]	; 32e0 <profiler_init+0x7c>
    3278:	e59f1064 	ldr	r1, [pc, #100]	; 32e4 <profiler_init+0x80>
    327c:	e3a00002 	mov	r0, #2
    3280:	fa000365 	blx	401c <io_printf>
    3284:	e59f205c 	ldr	r2, [pc, #92]	; 32e8 <profiler_init+0x84>
    3288:	e5943000 	ldr	r3, [r4]
    328c:	e59f5058 	ldr	r5, [pc, #88]	; 32ec <profiler_init+0x88>
    3290:	e5824000 	str	r4, [r2]
    3294:	e59f2054 	ldr	r2, [pc, #84]	; 32f0 <profiler_init+0x8c>
    3298:	e2844004 	add	r4, r4, #4
    329c:	e5824000 	str	r4, [r2]
    32a0:	e5853000 	str	r3, [r5]
    32a4:	e59f2034 	ldr	r2, [pc, #52]	; 32e0 <profiler_init+0x7c>
    32a8:	e88d0018 	stm	sp, {r3, r4}
    32ac:	e59f1040 	ldr	r1, [pc, #64]	; 32f4 <profiler_init+0x90>
    32b0:	e3a03018 	mov	r3, #24
    32b4:	e3a00002 	mov	r0, #2
    32b8:	fa000357 	blx	401c <io_printf>
    32bc:	e5953000 	ldr	r3, [r5]
    32c0:	e3530000 	cmp	r3, #0
    32c4:	13a02082 	movne	r2, #130	; 0x82
    32c8:	13a03421 	movne	r3, #553648128	; 0x21000000
    32cc:	15832028 	strne	r2, [r3, #40]	; 0x28
    32d0:	13a02000 	movne	r2, #0
    32d4:	15832020 	strne	r2, [r3, #32]
    32d8:	e28dd00c 	add	sp, sp, #12
    32dc:	e8bd8030 	pop	{r4, r5, pc}
    32e0:	00006a72 	.word	0x00006a72
    32e4:	00006a81 	.word	0x00006a81
    32e8:	004042a4 	.word	0x004042a4
    32ec:	004042ac 	.word	0x004042ac
    32f0:	004042a8 	.word	0x004042a8
    32f4:	00006ab8 	.word	0x00006ab8

000032f8 <profiler_finalise>:
    32f8:	e59f3044 	ldr	r3, [pc, #68]	; 3344 <profiler_finalise+0x4c>
    32fc:	e92d4007 	push	{r0, r1, r2, lr}
    3300:	e5932000 	ldr	r2, [r3]
    3304:	e59f303c 	ldr	r3, [pc, #60]	; 3348 <profiler_finalise+0x50>
    3308:	e3a00002 	mov	r0, #2
    330c:	e5933000 	ldr	r3, [r3]
    3310:	e0433002 	sub	r3, r3, r2
    3314:	e1a03143 	asr	r3, r3, #2
    3318:	e2431001 	sub	r1, r3, #1
    331c:	e1a03103 	lsl	r3, r3, #2
    3320:	e5821000 	str	r1, [r2]
    3324:	e58d2004 	str	r2, [sp, #4]
    3328:	e58d3000 	str	r3, [sp]
    332c:	e59f2018 	ldr	r2, [pc, #24]	; 334c <profiler_finalise+0x54>
    3330:	e3a03027 	mov	r3, #39	; 0x27
    3334:	e59f1014 	ldr	r1, [pc, #20]	; 3350 <profiler_finalise+0x58>
    3338:	fa000337 	blx	401c <io_printf>
    333c:	e28dd00c 	add	sp, sp, #12
    3340:	e49df004 	pop	{pc}		; (ldr pc, [sp], #4)
    3344:	004042a4 	.word	0x004042a4
    3348:	004042a8 	.word	0x004042a8
    334c:	00006a72 	.word	0x00006a72
    3350:	00006a3b 	.word	0x00006a3b

00003354 <circular_buffer_initialize>:
    3354:	e92d4070 	push	{r4, r5, r6, lr}
    3358:	e2406001 	sub	r6, r0, #1
    335c:	e1100006 	tst	r0, r6
    3360:	e24dd008 	sub	sp, sp, #8
    3364:	e1a05000 	mov	r5, r0
    3368:	1a000013 	bne	33bc <circular_buffer_initialize+0x68>
    336c:	e3a01014 	mov	r1, #20
    3370:	e3a00001 	mov	r0, #1
    3374:	fa000265 	blx	3d10 <sark_alloc>
    3378:	e2504000 	subs	r4, r0, #0
    337c:	0a00001b 	beq	33f0 <circular_buffer_initialize+0x9c>
    3380:	e1a01105 	lsl	r1, r5, #2
    3384:	e3a00001 	mov	r0, #1
    3388:	fa000260 	blx	3d10 <sark_alloc>
    338c:	e3500000 	cmp	r0, #0
    3390:	e1a0c000 	mov	ip, r0
    3394:	e5840000 	str	r0, [r4]
    3398:	0a00001a 	beq	3408 <circular_buffer_initialize+0xb4>
    339c:	e3a03000 	mov	r3, #0
    33a0:	e5846004 	str	r6, [r4, #4]
    33a4:	e584300c 	str	r3, [r4, #12]
    33a8:	e5843008 	str	r3, [r4, #8]
    33ac:	e5843010 	str	r3, [r4, #16]
    33b0:	e1a00004 	mov	r0, r4
    33b4:	e28dd008 	add	sp, sp, #8
    33b8:	e8bd8070 	pop	{r4, r5, r6, pc}
    33bc:	e16f3f10 	clz	r3, r0
    33c0:	e3a04001 	mov	r4, #1
    33c4:	e2633020 	rsb	r3, r3, #32
    33c8:	e1a04314 	lsl	r4, r4, r3
    33cc:	e2446001 	sub	r6, r4, #1
    33d0:	e88d0060 	stm	sp, {r5, r6}
    33d4:	e3a0304f 	mov	r3, #79	; 0x4f
    33d8:	e59f2044 	ldr	r2, [pc, #68]	; 3424 <circular_buffer_initialize+0xd0>
    33dc:	e59f1044 	ldr	r1, [pc, #68]	; 3428 <circular_buffer_initialize+0xd4>
    33e0:	e3a00002 	mov	r0, #2
    33e4:	fa00030c 	blx	401c <io_printf>
    33e8:	e1a05004 	mov	r5, r4
    33ec:	eaffffde 	b	336c <circular_buffer_initialize+0x18>
    33f0:	e3a03054 	mov	r3, #84	; 0x54
    33f4:	e59f2028 	ldr	r2, [pc, #40]	; 3424 <circular_buffer_initialize+0xd0>
    33f8:	e59f102c 	ldr	r1, [pc, #44]	; 342c <circular_buffer_initialize+0xd8>
    33fc:	e3a00002 	mov	r0, #2
    3400:	fa000305 	blx	401c <io_printf>
    3404:	eaffffe9 	b	33b0 <circular_buffer_initialize+0x5c>
    3408:	e3a0305a 	mov	r3, #90	; 0x5a
    340c:	e59f2010 	ldr	r2, [pc, #16]	; 3424 <circular_buffer_initialize+0xd0>
    3410:	e59f1018 	ldr	r1, [pc, #24]	; 3430 <circular_buffer_initialize+0xdc>
    3414:	e3a00002 	mov	r0, #2
    3418:	e1a0400c 	mov	r4, ip
    341c:	fa0002fe 	blx	401c <io_printf>
    3420:	eaffffe2 	b	33b0 <circular_buffer_initialize+0x5c>
    3424:	00006b14 	.word	0x00006b14
    3428:	00006b2c 	.word	0x00006b2c
    342c:	00006b6c 	.word	0x00006b6c
    3430:	00006bac 	.word	0x00006bac

00003434 <circular_buffer_add>:
    3434:	e590c00c 	ldr	ip, [r0, #12]
    3438:	e52de004 	push	{lr}		; (str lr, [sp, #-4]!)
    343c:	e590e004 	ldr	lr, [r0, #4]
    3440:	e1a03000 	mov	r3, r0
    3444:	e28c2001 	add	r2, ip, #1
    3448:	e5900008 	ldr	r0, [r0, #8]
    344c:	e002200e 	and	r2, r2, lr
    3450:	e1520000 	cmp	r2, r0
    3454:	15932000 	ldrne	r2, [r3]
    3458:	05932010 	ldreq	r2, [r3, #16]
    345c:	1782110c 	strne	r1, [r2, ip, lsl #2]
    3460:	1593200c 	ldrne	r2, [r3, #12]
    3464:	15931004 	ldrne	r1, [r3, #4]
    3468:	12822001 	addne	r2, r2, #1
    346c:	10022001 	andne	r2, r2, r1
    3470:	02822001 	addeq	r2, r2, #1
    3474:	13a00001 	movne	r0, #1
    3478:	03a00000 	moveq	r0, #0
    347c:	1583200c 	strne	r2, [r3, #12]
    3480:	05832010 	streq	r2, [r3, #16]
    3484:	e49df004 	pop	{pc}		; (ldr pc, [sp], #4)

00003488 <circular_buffer_get_next>:
    3488:	e5902008 	ldr	r2, [r0, #8]
    348c:	e1a03000 	mov	r3, r0
    3490:	e590000c 	ldr	r0, [r0, #12]
    3494:	e1520000 	cmp	r2, r0
    3498:	13a00001 	movne	r0, #1
    349c:	03a00000 	moveq	r0, #0
    34a0:	012fff1e 	bxeq	lr
    34a4:	e593c000 	ldr	ip, [r3]
    34a8:	e79c2102 	ldr	r2, [ip, r2, lsl #2]
    34ac:	e5812000 	str	r2, [r1]
    34b0:	e9930006 	ldmib	r3, {r1, r2}
    34b4:	e2822001 	add	r2, r2, #1
    34b8:	e0022001 	and	r2, r2, r1
    34bc:	e5832008 	str	r2, [r3, #8]
    34c0:	e12fff1e 	bx	lr

000034c4 <circular_buffer_advance_if_next_equals>:
    34c4:	e5903008 	ldr	r3, [r0, #8]
    34c8:	e590200c 	ldr	r2, [r0, #12]
    34cc:	e1530002 	cmp	r3, r2
    34d0:	0a000003 	beq	34e4 <circular_buffer_advance_if_next_equals+0x20>
    34d4:	e5902000 	ldr	r2, [r0]
    34d8:	e7922103 	ldr	r2, [r2, r3, lsl #2]
    34dc:	e1520001 	cmp	r2, r1
    34e0:	0a000001 	beq	34ec <circular_buffer_advance_if_next_equals+0x28>
    34e4:	e3a00000 	mov	r0, #0
    34e8:	e12fff1e 	bx	lr
    34ec:	e5902004 	ldr	r2, [r0, #4]
    34f0:	e2833001 	add	r3, r3, #1
    34f4:	e0033002 	and	r3, r3, r2
    34f8:	e5803008 	str	r3, [r0, #8]
    34fc:	e3a00001 	mov	r0, #1
    3500:	e12fff1e 	bx	lr

00003504 <circular_buffer_size>:
    3504:	e590300c 	ldr	r3, [r0, #12]
    3508:	e5902008 	ldr	r2, [r0, #8]
    350c:	e1530002 	cmp	r3, r2
    3510:	35900004 	ldrcc	r0, [r0, #4]
    3514:	30833000 	addcc	r3, r3, r0
    3518:	32833001 	addcc	r3, r3, #1
    351c:	e0430002 	sub	r0, r3, r2
    3520:	e12fff1e 	bx	lr

00003524 <circular_buffer_get_n_buffer_overflows>:
    3524:	e5900010 	ldr	r0, [r0, #16]
    3528:	e12fff1e 	bx	lr

0000352c <rte_handler>:
    352c:	4b01      	ldr	r3, [pc, #4]	; (3534 <rte_handler+0x8>)
    352e:	2208      	movs	r2, #8
    3530:	701a      	strb	r2, [r3, #0]
    3532:	4770      	bx	lr
    3534:	e5007f2b 	.word	0xe5007f2b

00003538 <sark_cpu_state>:
    3538:	4b02      	ldr	r3, [pc, #8]	; (3544 <sark_cpu_state+0xc>)
    353a:	69db      	ldr	r3, [r3, #28]
    353c:	332e      	adds	r3, #46	; 0x2e
    353e:	7018      	strb	r0, [r3, #0]
    3540:	4770      	bx	lr
    3542:	46c0      	nop			; (mov r8, r8)
    3544:	00404608 	.word	0x00404608

00003548 <sark_app_lead>:
    3548:	235c      	movs	r3, #92	; 0x5c
    354a:	781a      	ldrb	r2, [r3, #0]
    354c:	4b02      	ldr	r3, [pc, #8]	; (3558 <sark_app_lead+0x10>)
    354e:	00d2      	lsls	r2, r2, #3
    3550:	681b      	ldr	r3, [r3, #0]
    3552:	189b      	adds	r3, r3, r2
    3554:	78d8      	ldrb	r0, [r3, #3]
    3556:	4770      	bx	lr
    3558:	e5007fe4 	.word	0xe5007fe4

0000355c <sark_block_init>:
    355c:	b530      	push	{r4, r5, lr}
    355e:	000b      	movs	r3, r1
    3560:	0004      	movs	r4, r0
    3562:	3b01      	subs	r3, #1
    3564:	2b00      	cmp	r3, #0
    3566:	d104      	bne.n	3572 <sark_block_init+0x16>
    3568:	3901      	subs	r1, #1
    356a:	434a      	muls	r2, r1
    356c:	1880      	adds	r0, r0, r2
    356e:	6003      	str	r3, [r0, #0]
    3570:	bd30      	pop	{r4, r5, pc}
    3572:	18a5      	adds	r5, r4, r2
    3574:	6025      	str	r5, [r4, #0]
    3576:	002c      	movs	r4, r5
    3578:	e7f3      	b.n	3562 <sark_block_init+0x6>
	...

0000357c <sark_msg_get>:
    357c:	b510      	push	{r4, lr}
    357e:	f7fc ee24 	blx	1c8 <cpu_int_disable>
    3582:	4a09      	ldr	r2, [pc, #36]	; (35a8 <sark_msg_get+0x2c>)
    3584:	6a14      	ldr	r4, [r2, #32]
    3586:	2c00      	cmp	r4, #0
    3588:	d00a      	beq.n	35a0 <sark_msg_get+0x24>
    358a:	6823      	ldr	r3, [r4, #0]
    358c:	6213      	str	r3, [r2, #32]
    358e:	8c93      	ldrh	r3, [r2, #36]	; 0x24
    3590:	8cd1      	ldrh	r1, [r2, #38]	; 0x26
    3592:	3301      	adds	r3, #1
    3594:	041b      	lsls	r3, r3, #16
    3596:	0c1b      	lsrs	r3, r3, #16
    3598:	8493      	strh	r3, [r2, #36]	; 0x24
    359a:	4299      	cmp	r1, r3
    359c:	d200      	bcs.n	35a0 <sark_msg_get+0x24>
    359e:	84d3      	strh	r3, [r2, #38]	; 0x26
    35a0:	f7fc ee1a 	blx	1d8 <cpu_int_restore>
    35a4:	0020      	movs	r0, r4
    35a6:	bd10      	pop	{r4, pc}
    35a8:	00404608 	.word	0x00404608

000035ac <sark_msg_free>:
    35ac:	b510      	push	{r4, lr}
    35ae:	0004      	movs	r4, r0
    35b0:	f7fc ee0a 	blx	1c8 <cpu_int_disable>
    35b4:	4b04      	ldr	r3, [pc, #16]	; (35c8 <sark_msg_free+0x1c>)
    35b6:	6a1a      	ldr	r2, [r3, #32]
    35b8:	6022      	str	r2, [r4, #0]
    35ba:	8c9a      	ldrh	r2, [r3, #36]	; 0x24
    35bc:	621c      	str	r4, [r3, #32]
    35be:	3a01      	subs	r2, #1
    35c0:	849a      	strh	r2, [r3, #36]	; 0x24
    35c2:	f7fc ee0a 	blx	1d8 <cpu_int_restore>
    35c6:	bd10      	pop	{r4, pc}
    35c8:	00404608 	.word	0x00404608

000035cc <sark_shmsg_get>:
    35cc:	b510      	push	{r4, lr}
    35ce:	2000      	movs	r0, #0
    35d0:	f7fc ee0a 	blx	1e8 <sark_lock_get>
    35d4:	4a09      	ldr	r2, [pc, #36]	; (35fc <sark_shmsg_get+0x30>)
    35d6:	6814      	ldr	r4, [r2, #0]
    35d8:	2c00      	cmp	r4, #0
    35da:	d00a      	beq.n	35f2 <sark_shmsg_get+0x26>
    35dc:	6823      	ldr	r3, [r4, #0]
    35de:	6013      	str	r3, [r2, #0]
    35e0:	8893      	ldrh	r3, [r2, #4]
    35e2:	88d1      	ldrh	r1, [r2, #6]
    35e4:	3301      	adds	r3, #1
    35e6:	041b      	lsls	r3, r3, #16
    35e8:	0c1b      	lsrs	r3, r3, #16
    35ea:	8093      	strh	r3, [r2, #4]
    35ec:	4299      	cmp	r1, r3
    35ee:	d200      	bcs.n	35f2 <sark_shmsg_get+0x26>
    35f0:	80d3      	strh	r3, [r2, #6]
    35f2:	2100      	movs	r1, #0
    35f4:	f7fc ee0a 	blx	20c <sark_lock_free>
    35f8:	0020      	movs	r0, r4
    35fa:	bd10      	pop	{r4, pc}
    35fc:	e5007f68 	.word	0xe5007f68

00003600 <sark_shmsg_free>:
    3600:	b510      	push	{r4, lr}
    3602:	0004      	movs	r4, r0
    3604:	2000      	movs	r0, #0
    3606:	f7fc edf0 	blx	1e8 <sark_lock_get>
    360a:	4b05      	ldr	r3, [pc, #20]	; (3620 <sark_shmsg_free+0x20>)
    360c:	2100      	movs	r1, #0
    360e:	681a      	ldr	r2, [r3, #0]
    3610:	6022      	str	r2, [r4, #0]
    3612:	889a      	ldrh	r2, [r3, #4]
    3614:	601c      	str	r4, [r3, #0]
    3616:	3a01      	subs	r2, #1
    3618:	809a      	strh	r2, [r3, #4]
    361a:	f7fc edf8 	blx	20c <sark_lock_free>
    361e:	bd10      	pop	{r4, pc}
    3620:	e5007f68 	.word	0xe5007f68

00003624 <sark_call_cpp_constructors>:
    3624:	b510      	push	{r4, lr}
    3626:	4c04      	ldr	r4, [pc, #16]	; (3638 <sark_call_cpp_constructors+0x14>)
    3628:	4b04      	ldr	r3, [pc, #16]	; (363c <sark_call_cpp_constructors+0x18>)
    362a:	429c      	cmp	r4, r3
    362c:	d300      	bcc.n	3630 <sark_call_cpp_constructors+0xc>
    362e:	bd10      	pop	{r4, pc}
    3630:	cc08      	ldmia	r4!, {r3}
    3632:	4798      	blx	r3
    3634:	e7f8      	b.n	3628 <sark_call_cpp_constructors+0x4>
    3636:	46c0      	nop			; (mov r8, r8)
    3638:	000052e0 	.word	0x000052e0
    363c:	000052e0 	.word	0x000052e0

00003640 <sark_init>:
    3640:	b570      	push	{r4, r5, r6, lr}
    3642:	2520      	movs	r5, #32
    3644:	0004      	movs	r4, r0
    3646:	8c28      	ldrh	r0, [r5, #32]
    3648:	8c6a      	ldrh	r2, [r5, #34]	; 0x22
    364a:	0080      	lsls	r0, r0, #2
    364c:	1a20      	subs	r0, r4, r0
    364e:	21d2      	movs	r1, #210	; 0xd2
    3650:	f7fc ed9e 	blx	190 <cpu_init_mode>
    3654:	8caa      	ldrh	r2, [r5, #36]	; 0x24
    3656:	21d1      	movs	r1, #209	; 0xd1
    3658:	f7fc ed9a 	blx	190 <cpu_init_mode>
    365c:	2200      	movs	r2, #0
    365e:	21df      	movs	r1, #223	; 0xdf
    3660:	f7fc ed96 	blx	190 <cpu_init_mode>
    3664:	8ce9      	ldrh	r1, [r5, #38]	; 0x26
    3666:	2658      	movs	r6, #88	; 0x58
    3668:	0889      	lsrs	r1, r1, #2
    366a:	0089      	lsls	r1, r1, #2
    366c:	1a61      	subs	r1, r4, r1
    366e:	4c37      	ldr	r4, [pc, #220]	; (374c <sark_init+0x10c>)
    3670:	6121      	str	r1, [r4, #16]
    3672:	6ae8      	ldr	r0, [r5, #44]	; 0x2c
    3674:	6160      	str	r0, [r4, #20]
    3676:	f000 fba9 	bl	3dcc <sark_heap_init>
    367a:	4b35      	ldr	r3, [pc, #212]	; (3750 <sark_init+0x110>)
    367c:	4a35      	ldr	r2, [pc, #212]	; (3754 <sark_init+0x114>)
    367e:	681b      	ldr	r3, [r3, #0]
    3680:	4d35      	ldr	r5, [pc, #212]	; (3758 <sark_init+0x118>)
    3682:	0e1b      	lsrs	r3, r3, #24
    3684:	6063      	str	r3, [r4, #4]
    3686:	189b      	adds	r3, r3, r2
    3688:	2192      	movs	r1, #146	; 0x92
    368a:	0049      	lsls	r1, r1, #1
    368c:	61a0      	str	r0, [r4, #24]
    368e:	781b      	ldrb	r3, [r3, #0]
    3690:	6023      	str	r3, [r4, #0]
    3692:	8cab      	ldrh	r3, [r5, #36]	; 0x24
    3694:	8623      	strh	r3, [r4, #48]	; 0x30
    3696:	4b31      	ldr	r3, [pc, #196]	; (375c <sark_init+0x11c>)
    3698:	60a3      	str	r3, [r4, #8]
    369a:	7830      	ldrb	r0, [r6, #0]
    369c:	f000 fb38 	bl	3d10 <sark_alloc>
    36a0:	2292      	movs	r2, #146	; 0x92
    36a2:	0052      	lsls	r2, r2, #1
    36a4:	6220      	str	r0, [r4, #32]
    36a6:	7831      	ldrb	r1, [r6, #0]
    36a8:	f7ff ff58 	bl	355c <sark_block_init>
    36ac:	4b2c      	ldr	r3, [pc, #176]	; (3760 <sark_init+0x120>)
    36ae:	221f      	movs	r2, #31
    36b0:	681b      	ldr	r3, [r3, #0]
    36b2:	4013      	ands	r3, r2
    36b4:	6862      	ldr	r2, [r4, #4]
    36b6:	429a      	cmp	r2, r3
    36b8:	d032      	beq.n	3720 <sark_init+0xe0>
    36ba:	6823      	ldr	r3, [r4, #0]
    36bc:	4a29      	ldr	r2, [pc, #164]	; (3764 <sark_init+0x124>)
    36be:	01d8      	lsls	r0, r3, #7
    36c0:	1880      	adds	r0, r0, r2
    36c2:	6daa      	ldr	r2, [r5, #88]	; 0x58
    36c4:	2100      	movs	r1, #0
    36c6:	435a      	muls	r2, r3
    36c8:	0093      	lsls	r3, r2, #2
    36ca:	6d6a      	ldr	r2, [r5, #84]	; 0x54
    36cc:	61e0      	str	r0, [r4, #28]
    36ce:	18d3      	adds	r3, r2, r3
    36d0:	2270      	movs	r2, #112	; 0x70
    36d2:	6363      	str	r3, [r4, #52]	; 0x34
    36d4:	f7fc edae 	blx	234 <sark_word_set>
    36d8:	69e0      	ldr	r0, [r4, #28]
    36da:	2205      	movs	r2, #5
    36dc:	0003      	movs	r3, r0
    36de:	332e      	adds	r3, #46	; 0x2e
    36e0:	701a      	strb	r2, [r3, #0]
    36e2:	6862      	ldr	r2, [r4, #4]
    36e4:	3b01      	subs	r3, #1
    36e6:	701a      	strb	r2, [r3, #0]
    36e8:	225c      	movs	r2, #92	; 0x5c
    36ea:	7812      	ldrb	r2, [r2, #0]
    36ec:	709a      	strb	r2, [r3, #2]
    36ee:	69eb      	ldr	r3, [r5, #28]
    36f0:	6443      	str	r3, [r0, #68]	; 0x44
    36f2:	4b1d      	ldr	r3, [pc, #116]	; (3768 <sark_init+0x128>)
    36f4:	65c3      	str	r3, [r0, #92]	; 0x5c
    36f6:	491d      	ldr	r1, [pc, #116]	; (376c <sark_init+0x12c>)
    36f8:	3048      	adds	r0, #72	; 0x48
    36fa:	f7fc ed92 	blx	220 <sark_str_cpy>
    36fe:	4b1c      	ldr	r3, [pc, #112]	; (3770 <sark_init+0x130>)
    3700:	22ff      	movs	r2, #255	; 0xff
    3702:	681b      	ldr	r3, [r3, #0]
    3704:	0412      	lsls	r2, r2, #16
    3706:	21c0      	movs	r1, #192	; 0xc0
    3708:	401a      	ands	r2, r3
    370a:	0289      	lsls	r1, r1, #10
    370c:	428a      	cmp	r2, r1
    370e:	d104      	bne.n	371a <sark_init+0xda>
    3710:	22ff      	movs	r2, #255	; 0xff
    3712:	0212      	lsls	r2, r2, #8
    3714:	4013      	ands	r3, r2
    3716:	2bff      	cmp	r3, #255	; 0xff
    3718:	d802      	bhi.n	3720 <sark_init+0xe0>
    371a:	2014      	movs	r0, #20
    371c:	f7fc ed06 	blx	12c <rt_error>
    3720:	f000 fa34 	bl	3b8c <sark_vic_init>
    3724:	2359      	movs	r3, #89	; 0x59
    3726:	7818      	ldrb	r0, [r3, #0]
    3728:	2201      	movs	r2, #1
    372a:	4b12      	ldr	r3, [pc, #72]	; (3774 <sark_init+0x134>)
    372c:	2112      	movs	r1, #18
    372e:	f000 fa55 	bl	3bdc <sark_vic_set>
    3732:	2201      	movs	r2, #1
    3734:	2106      	movs	r1, #6
    3736:	4b10      	ldr	r3, [pc, #64]	; (3778 <sark_init+0x138>)
    3738:	2010      	movs	r0, #16
    373a:	f000 fa4f 	bl	3bdc <sark_vic_set>
    373e:	235a      	movs	r3, #90	; 0x5a
    3740:	7818      	ldrb	r0, [r3, #0]
    3742:	f000 fa05 	bl	3b50 <event_alloc>
    3746:	201f      	movs	r0, #31
    3748:	bd70      	pop	{r4, r5, r6, pc}
    374a:	46c0      	nop			; (mov r8, r8)
    374c:	00404608 	.word	0x00404608
    3750:	40000014 	.word	0x40000014
    3754:	e5007f94 	.word	0xe5007f94
    3758:	e5007f00 	.word	0xe5007f00
    375c:	deaddead 	.word	0xdeaddead
    3760:	e2000034 	.word	0xe2000034
    3764:	e5007000 	.word	0xe5007000
    3768:	00030100 	.word	0x00030100
    376c:	00006104 	.word	0x00006104
    3770:	e5007ffc 	.word	0xe5007ffc
    3774:	00000300 	.word	0x00000300
    3778:	00003c1c 	.word	0x00003c1c

0000377c <sark_msg_send>:
    377c:	b5f8      	push	{r3, r4, r5, r6, r7, lr}
    377e:	0004      	movs	r4, r0
    3780:	000f      	movs	r7, r1
    3782:	f7ff ff23 	bl	35cc <sark_shmsg_get>
    3786:	1e06      	subs	r6, r0, #0
    3788:	d032      	beq.n	37f0 <sark_msg_send+0x74>
    378a:	0021      	movs	r1, r4
    378c:	f7fc ed64 	blx	258 <sark_msg_cpy>
    3790:	4d1a      	ldr	r5, [pc, #104]	; (37fc <sark_msg_send+0x80>)
    3792:	2401      	movs	r4, #1
    3794:	69eb      	ldr	r3, [r5, #28]
    3796:	0020      	movs	r0, r4
    3798:	635e      	str	r6, [r3, #52]	; 0x34
    379a:	3339      	adds	r3, #57	; 0x39
    379c:	701c      	strb	r4, [r3, #0]
    379e:	f7fc ed24 	blx	1e8 <sark_lock_get>
    37a2:	4b17      	ldr	r3, [pc, #92]	; (3800 <sark_msg_send+0x84>)
    37a4:	6829      	ldr	r1, [r5, #0]
    37a6:	681a      	ldr	r2, [r3, #0]
    37a8:	469c      	mov	ip, r3
    37aa:	0023      	movs	r3, r4
    37ac:	408b      	lsls	r3, r1
    37ae:	4313      	orrs	r3, r2
    37b0:	4661      	mov	r1, ip
    37b2:	600b      	str	r3, [r1, #0]
    37b4:	2a00      	cmp	r2, #0
    37b6:	d106      	bne.n	37c6 <sark_msg_send+0x4a>
    37b8:	4b12      	ldr	r3, [pc, #72]	; (3804 <sark_msg_send+0x88>)
    37ba:	781b      	ldrb	r3, [r3, #0]
    37bc:	409c      	lsls	r4, r3
    37be:	4b12      	ldr	r3, [pc, #72]	; (3808 <sark_msg_send+0x8c>)
    37c0:	18e4      	adds	r4, r4, r3
    37c2:	4b12      	ldr	r3, [pc, #72]	; (380c <sark_msg_send+0x90>)
    37c4:	601c      	str	r4, [r3, #0]
    37c6:	2101      	movs	r1, #1
    37c8:	f7fc ed20 	blx	20c <sark_lock_free>
    37cc:	4a10      	ldr	r2, [pc, #64]	; (3810 <sark_msg_send+0x94>)
    37ce:	69eb      	ldr	r3, [r5, #28]
    37d0:	6810      	ldr	r0, [r2, #0]
    37d2:	3339      	adds	r3, #57	; 0x39
    37d4:	7819      	ldrb	r1, [r3, #0]
    37d6:	2900      	cmp	r1, #0
    37d8:	d003      	beq.n	37e2 <sark_msg_send+0x66>
    37da:	6811      	ldr	r1, [r2, #0]
    37dc:	1a09      	subs	r1, r1, r0
    37de:	42b9      	cmp	r1, r7
    37e0:	d9f8      	bls.n	37d4 <sark_msg_send+0x58>
    37e2:	781b      	ldrb	r3, [r3, #0]
    37e4:	2b00      	cmp	r3, #0
    37e6:	d004      	beq.n	37f2 <sark_msg_send+0x76>
    37e8:	0030      	movs	r0, r6
    37ea:	f7ff ff09 	bl	3600 <sark_shmsg_free>
    37ee:	2000      	movs	r0, #0
    37f0:	bdf8      	pop	{r3, r4, r5, r6, r7, pc}
    37f2:	6aeb      	ldr	r3, [r5, #44]	; 0x2c
    37f4:	2001      	movs	r0, #1
    37f6:	3301      	adds	r3, #1
    37f8:	62eb      	str	r3, [r5, #44]	; 0x2c
    37fa:	e7f9      	b.n	37f0 <sark_msg_send+0x74>
    37fc:	00404608 	.word	0x00404608
    3800:	e5007fec 	.word	0xe5007fec
    3804:	e5007fa8 	.word	0xe5007fa8
    3808:	5ec00000 	.word	0x5ec00000
    380c:	e2000008 	.word	0xe2000008
    3810:	e5007f10 	.word	0xe5007f10

00003814 <sark_cmd_ver>:
    3814:	4a0d      	ldr	r2, [pc, #52]	; (384c <sark_cmd_ver+0x38>)
    3816:	b510      	push	{r4, lr}
    3818:	6853      	ldr	r3, [r2, #4]
    381a:	6812      	ldr	r2, [r2, #0]
    381c:	021b      	lsls	r3, r3, #8
    381e:	189b      	adds	r3, r3, r2
    3820:	4a0b      	ldr	r2, [pc, #44]	; (3850 <sark_cmd_ver+0x3c>)
    3822:	0004      	movs	r4, r0
    3824:	8812      	ldrh	r2, [r2, #0]
    3826:	490b      	ldr	r1, [pc, #44]	; (3854 <sark_cmd_ver+0x40>)
    3828:	0412      	lsls	r2, r2, #16
    382a:	189b      	adds	r3, r3, r2
    382c:	6143      	str	r3, [r0, #20]
    382e:	4b0a      	ldr	r3, [pc, #40]	; (3858 <sark_cmd_ver+0x44>)
    3830:	6183      	str	r3, [r0, #24]
    3832:	4b0a      	ldr	r3, [pc, #40]	; (385c <sark_cmd_ver+0x48>)
    3834:	681b      	ldr	r3, [r3, #0]
    3836:	61c3      	str	r3, [r0, #28]
    3838:	3020      	adds	r0, #32
    383a:	f7fc ecf2 	blx	220 <sark_str_cpy>
    383e:	0020      	movs	r0, r4
    3840:	302f      	adds	r0, #47	; 0x2f
    3842:	4907      	ldr	r1, [pc, #28]	; (3860 <sark_cmd_ver+0x4c>)
    3844:	f7fc ecec 	blx	220 <sark_str_cpy>
    3848:	2021      	movs	r0, #33	; 0x21
    384a:	bd10      	pop	{r4, pc}
    384c:	00404608 	.word	0x00404608
    3850:	e5007f00 	.word	0xe5007f00
    3854:	00006bf8 	.word	0x00006bf8
    3858:	ffff0100 	.word	0xffff0100
    385c:	00006114 	.word	0x00006114
    3860:	00006c07 	.word	0x00006c07

00003864 <sark_cmd_read>:
    3864:	6981      	ldr	r1, [r0, #24]
    3866:	2380      	movs	r3, #128	; 0x80
    3868:	b530      	push	{r4, r5, lr}
    386a:	005b      	lsls	r3, r3, #1
    386c:	4299      	cmp	r1, r3
    386e:	d802      	bhi.n	3876 <sark_cmd_read+0x12>
    3870:	69c2      	ldr	r2, [r0, #28]
    3872:	2a02      	cmp	r2, #2
    3874:	d904      	bls.n	3880 <sark_cmd_read+0x1c>
    3876:	2384      	movs	r3, #132	; 0x84
    3878:	2100      	movs	r1, #0
    387a:	8203      	strh	r3, [r0, #16]
    387c:	0008      	movs	r0, r1
    387e:	bd30      	pop	{r4, r5, pc}
    3880:	0003      	movs	r3, r0
    3882:	6944      	ldr	r4, [r0, #20]
    3884:	3314      	adds	r3, #20
    3886:	2a00      	cmp	r2, #0
    3888:	d00f      	beq.n	38aa <sark_cmd_read+0x46>
    388a:	2a01      	cmp	r2, #1
    388c:	d110      	bne.n	38b0 <sark_cmd_read+0x4c>
    388e:	084a      	lsrs	r2, r1, #1
    3890:	0052      	lsls	r2, r2, #1
    3892:	189a      	adds	r2, r3, r2
    3894:	0018      	movs	r0, r3
    3896:	4290      	cmp	r0, r2
    3898:	d0f0      	beq.n	387c <sark_cmd_read+0x18>
    389a:	1ac5      	subs	r5, r0, r3
    389c:	5b2d      	ldrh	r5, [r5, r4]
    389e:	8005      	strh	r5, [r0, #0]
    38a0:	3002      	adds	r0, #2
    38a2:	e7f8      	b.n	3896 <sark_cmd_read+0x32>
    38a4:	5d10      	ldrb	r0, [r2, r4]
    38a6:	5498      	strb	r0, [r3, r2]
    38a8:	3201      	adds	r2, #1
    38aa:	428a      	cmp	r2, r1
    38ac:	d1fa      	bne.n	38a4 <sark_cmd_read+0x40>
    38ae:	e7e5      	b.n	387c <sark_cmd_read+0x18>
    38b0:	088a      	lsrs	r2, r1, #2
    38b2:	0092      	lsls	r2, r2, #2
    38b4:	189a      	adds	r2, r3, r2
    38b6:	0018      	movs	r0, r3
    38b8:	4290      	cmp	r0, r2
    38ba:	d0df      	beq.n	387c <sark_cmd_read+0x18>
    38bc:	1ac5      	subs	r5, r0, r3
    38be:	592d      	ldr	r5, [r5, r4]
    38c0:	c020      	stmia	r0!, {r5}
    38c2:	e7f9      	b.n	38b8 <sark_cmd_read+0x54>

000038c4 <sark_cmd_write>:
    38c4:	6983      	ldr	r3, [r0, #24]
    38c6:	2280      	movs	r2, #128	; 0x80
    38c8:	b530      	push	{r4, r5, lr}
    38ca:	0052      	lsls	r2, r2, #1
    38cc:	4293      	cmp	r3, r2
    38ce:	d802      	bhi.n	38d6 <sark_cmd_write+0x12>
    38d0:	69c1      	ldr	r1, [r0, #28]
    38d2:	2902      	cmp	r1, #2
    38d4:	d903      	bls.n	38de <sark_cmd_write+0x1a>
    38d6:	2384      	movs	r3, #132	; 0x84
    38d8:	8203      	strh	r3, [r0, #16]
    38da:	2000      	movs	r0, #0
    38dc:	bd30      	pop	{r4, r5, pc}
    38de:	6942      	ldr	r2, [r0, #20]
    38e0:	3020      	adds	r0, #32
    38e2:	2900      	cmp	r1, #0
    38e4:	d108      	bne.n	38f8 <sark_cmd_write+0x34>
    38e6:	18c3      	adds	r3, r0, r3
    38e8:	0001      	movs	r1, r0
    38ea:	4299      	cmp	r1, r3
    38ec:	d0f5      	beq.n	38da <sark_cmd_write+0x16>
    38ee:	780d      	ldrb	r5, [r1, #0]
    38f0:	1a0c      	subs	r4, r1, r0
    38f2:	54a5      	strb	r5, [r4, r2]
    38f4:	3101      	adds	r1, #1
    38f6:	e7f8      	b.n	38ea <sark_cmd_write+0x26>
    38f8:	2901      	cmp	r1, #1
    38fa:	d10a      	bne.n	3912 <sark_cmd_write+0x4e>
    38fc:	085b      	lsrs	r3, r3, #1
    38fe:	005b      	lsls	r3, r3, #1
    3900:	18c3      	adds	r3, r0, r3
    3902:	0001      	movs	r1, r0
    3904:	4299      	cmp	r1, r3
    3906:	d0e8      	beq.n	38da <sark_cmd_write+0x16>
    3908:	880d      	ldrh	r5, [r1, #0]
    390a:	1a0c      	subs	r4, r1, r0
    390c:	52a5      	strh	r5, [r4, r2]
    390e:	3102      	adds	r1, #2
    3910:	e7f8      	b.n	3904 <sark_cmd_write+0x40>
    3912:	089b      	lsrs	r3, r3, #2
    3914:	009b      	lsls	r3, r3, #2
    3916:	18c3      	adds	r3, r0, r3
    3918:	0001      	movs	r1, r0
    391a:	4299      	cmp	r1, r3
    391c:	d0dd      	beq.n	38da <sark_cmd_write+0x16>
    391e:	1a0c      	subs	r4, r1, r0
    3920:	680d      	ldr	r5, [r1, #0]
    3922:	50a5      	str	r5, [r4, r2]
    3924:	3104      	adds	r1, #4
    3926:	e7f8      	b.n	391a <sark_cmd_write+0x56>

00003928 <sark_cmd_fill>:
    3928:	b510      	push	{r4, lr}
    392a:	69c2      	ldr	r2, [r0, #28]
    392c:	6981      	ldr	r1, [r0, #24]
    392e:	6940      	ldr	r0, [r0, #20]
    3930:	f7fc ec80 	blx	234 <sark_word_set>
    3934:	2000      	movs	r0, #0
    3936:	bd10      	pop	{r4, pc}

00003938 <sark_wait>:
    3938:	b570      	push	{r4, r5, r6, lr}
    393a:	255d      	movs	r5, #93	; 0x5d
    393c:	2401      	movs	r4, #1
    393e:	782b      	ldrb	r3, [r5, #0]
    3940:	4223      	tst	r3, r4
    3942:	d100      	bne.n	3946 <sark_wait+0xe>
    3944:	bd70      	pop	{r4, r5, r6, pc}
    3946:	f7fc ec4c 	blx	1e0 <cpu_wfi>
    394a:	e7f8      	b.n	393e <sark_wait+0x6>

0000394c <sark_int>:
    394c:	b570      	push	{r4, r5, r6, lr}
    394e:	4d52      	ldr	r5, [pc, #328]	; (3a98 <sark_int+0x14c>)
    3950:	2301      	movs	r3, #1
    3952:	686a      	ldr	r2, [r5, #4]
    3954:	4093      	lsls	r3, r2
    3956:	4a51      	ldr	r2, [pc, #324]	; (3a9c <sark_int+0x150>)
    3958:	189b      	adds	r3, r3, r2
    395a:	4a51      	ldr	r2, [pc, #324]	; (3aa0 <sark_int+0x154>)
    395c:	6013      	str	r3, [r2, #0]
    395e:	69ea      	ldr	r2, [r5, #28]
    3960:	0011      	movs	r1, r2
    3962:	3138      	adds	r1, #56	; 0x38
    3964:	780b      	ldrb	r3, [r1, #0]
    3966:	2b00      	cmp	r3, #0
    3968:	d015      	beq.n	3996 <sark_int+0x4a>
    396a:	6b16      	ldr	r6, [r2, #48]	; 0x30
    396c:	2b02      	cmp	r3, #2
    396e:	d100      	bne.n	3972 <sark_int+0x26>
    3970:	6310      	str	r0, [r2, #48]	; 0x30
    3972:	2200      	movs	r2, #0
    3974:	700a      	strb	r2, [r1, #0]
    3976:	2b03      	cmp	r3, #3
    3978:	d123      	bne.n	39c2 <sark_int+0x76>
    397a:	1ef0      	subs	r0, r6, #3
    397c:	280a      	cmp	r0, #10
    397e:	d80a      	bhi.n	3996 <sark_int+0x4a>
    3980:	f7fc fcf0 	bl	364 <__gnu_thumb1_case_uqi>
    3984:	06090910 	.word	0x06090910
    3988:	161d0c0a 	.word	0x161d0c0a
    398c:	1616      	.short	0x1616
    398e:	16          	.byte	0x16
    398f:	00          	.byte	0x00
    3990:	2001      	movs	r0, #1
    3992:	f000 f8bb 	bl	3b0c <event_pause>
    3996:	bd70      	pop	{r4, r5, r6, pc}
    3998:	2000      	movs	r0, #0
    399a:	e7fa      	b.n	3992 <sark_int+0x46>
    399c:	20ff      	movs	r0, #255	; 0xff
    399e:	f000 f8cb 	bl	3b38 <event_stop>
    39a2:	e7f8      	b.n	3996 <sark_int+0x4a>
    39a4:	225d      	movs	r2, #93	; 0x5d
    39a6:	7813      	ldrb	r3, [r2, #0]
    39a8:	2101      	movs	r1, #1
    39aa:	438b      	bics	r3, r1
    39ac:	7013      	strb	r3, [r2, #0]
    39ae:	e7f2      	b.n	3996 <sark_int+0x4a>
    39b0:	4b3c      	ldr	r3, [pc, #240]	; (3aa4 <sark_int+0x158>)
    39b2:	2280      	movs	r2, #128	; 0x80
    39b4:	0592      	lsls	r2, r2, #22
    39b6:	62de      	str	r6, [r3, #44]	; 0x2c
    39b8:	4b3b      	ldr	r3, [pc, #236]	; (3aa8 <sark_int+0x15c>)
    39ba:	601a      	str	r2, [r3, #0]
    39bc:	e7eb      	b.n	3996 <sark_int+0x4a>
    39be:	2210      	movs	r2, #16
    39c0:	e7fa      	b.n	39b8 <sark_int+0x6c>
    39c2:	2b01      	cmp	r3, #1
    39c4:	d1e7      	bne.n	3996 <sark_int+0x4a>
    39c6:	f7ff fdd9 	bl	357c <sark_msg_get>
    39ca:	1e04      	subs	r4, r0, #0
    39cc:	d060      	beq.n	3a90 <sark_int+0x144>
    39ce:	0031      	movs	r1, r6
    39d0:	f7fc ec42 	blx	258 <sark_msg_cpy>
    39d4:	0030      	movs	r0, r6
    39d6:	f7ff fe13 	bl	3600 <sark_shmsg_free>
    39da:	6aab      	ldr	r3, [r5, #40]	; 0x28
    39dc:	3301      	adds	r3, #1
    39de:	62ab      	str	r3, [r5, #40]	; 0x28
    39e0:	7aa5      	ldrb	r5, [r4, #10]
    39e2:	231f      	movs	r3, #31
    39e4:	0028      	movs	r0, r5
    39e6:	4398      	bics	r0, r3
    39e8:	d133      	bne.n	3a52 <sark_int+0x106>
    39ea:	88a3      	ldrh	r3, [r4, #4]
    39ec:	2b17      	cmp	r3, #23
    39ee:	d802      	bhi.n	39f6 <sark_int+0xaa>
    39f0:	2381      	movs	r3, #129	; 0x81
    39f2:	8223      	strh	r3, [r4, #16]
    39f4:	e007      	b.n	3a06 <sark_int+0xba>
    39f6:	8a23      	ldrh	r3, [r4, #16]
    39f8:	2280      	movs	r2, #128	; 0x80
    39fa:	8222      	strh	r2, [r4, #16]
    39fc:	2b00      	cmp	r3, #0
    39fe:	d114      	bne.n	3a2a <sark_int+0xde>
    3a00:	0020      	movs	r0, r4
    3a02:	f7ff ff07 	bl	3814 <sark_cmd_ver>
    3a06:	7aa2      	ldrb	r2, [r4, #10]
    3a08:	7ae1      	ldrb	r1, [r4, #11]
    3a0a:	300c      	adds	r0, #12
    3a0c:	89a3      	ldrh	r3, [r4, #12]
    3a0e:	72e2      	strb	r2, [r4, #11]
    3a10:	89e2      	ldrh	r2, [r4, #14]
    3a12:	80a0      	strh	r0, [r4, #4]
    3a14:	72a1      	strb	r1, [r4, #10]
    3a16:	81a2      	strh	r2, [r4, #12]
    3a18:	81e3      	strh	r3, [r4, #14]
    3a1a:	210a      	movs	r1, #10
    3a1c:	0020      	movs	r0, r4
    3a1e:	f7ff fead 	bl	377c <sark_msg_send>
    3a22:	0020      	movs	r0, r4
    3a24:	f7ff fdc2 	bl	35ac <sark_msg_free>
    3a28:	e7b5      	b.n	3996 <sark_int+0x4a>
    3a2a:	2b02      	cmp	r3, #2
    3a2c:	d103      	bne.n	3a36 <sark_int+0xea>
    3a2e:	0020      	movs	r0, r4
    3a30:	f7ff ff18 	bl	3864 <sark_cmd_read>
    3a34:	e7e7      	b.n	3a06 <sark_int+0xba>
    3a36:	2b03      	cmp	r3, #3
    3a38:	d103      	bne.n	3a42 <sark_int+0xf6>
    3a3a:	0020      	movs	r0, r4
    3a3c:	f7ff ff42 	bl	38c4 <sark_cmd_write>
    3a40:	e7e1      	b.n	3a06 <sark_int+0xba>
    3a42:	2b05      	cmp	r3, #5
    3a44:	d103      	bne.n	3a4e <sark_int+0x102>
    3a46:	0020      	movs	r0, r4
    3a48:	f7ff ff6e 	bl	3928 <sark_cmd_fill>
    3a4c:	e7db      	b.n	3a06 <sark_int+0xba>
    3a4e:	2383      	movs	r3, #131	; 0x83
    3a50:	e7cf      	b.n	39f2 <sark_int+0xa6>
    3a52:	235b      	movs	r3, #91	; 0x5b
    3a54:	781b      	ldrb	r3, [r3, #0]
    3a56:	2b00      	cmp	r3, #0
    3a58:	d00f      	beq.n	3a7a <sark_int+0x12e>
    3a5a:	4b14      	ldr	r3, [pc, #80]	; (3aac <sark_int+0x160>)
    3a5c:	699b      	ldr	r3, [r3, #24]
    3a5e:	2b00      	cmp	r3, #0
    3a60:	d0df      	beq.n	3a22 <sark_int+0xd6>
    3a62:	f7fc ebb2 	blx	1c8 <cpu_int_disable>
    3a66:	096a      	lsrs	r2, r5, #5
    3a68:	0021      	movs	r1, r4
    3a6a:	0006      	movs	r6, r0
    3a6c:	2003      	movs	r0, #3
    3a6e:	f001 f855 	bl	4b1c <schedule_sysmode>
    3a72:	0030      	movs	r0, r6
    3a74:	f7fc ebb0 	blx	1d8 <cpu_int_restore>
    3a78:	e78d      	b.n	3996 <sark_int+0x4a>
    3a7a:	4b0d      	ldr	r3, [pc, #52]	; (3ab0 <sark_int+0x164>)
    3a7c:	681a      	ldr	r2, [r3, #0]
    3a7e:	2380      	movs	r3, #128	; 0x80
    3a80:	055b      	lsls	r3, r3, #21
    3a82:	421a      	tst	r2, r3
    3a84:	d0cd      	beq.n	3a22 <sark_int+0xd6>
    3a86:	4a07      	ldr	r2, [pc, #28]	; (3aa4 <sark_int+0x158>)
    3a88:	6294      	str	r4, [r2, #40]	; 0x28
    3a8a:	4a07      	ldr	r2, [pc, #28]	; (3aa8 <sark_int+0x15c>)
    3a8c:	6013      	str	r3, [r2, #0]
    3a8e:	e782      	b.n	3996 <sark_int+0x4a>
    3a90:	0030      	movs	r0, r6
    3a92:	f7ff fdb5 	bl	3600 <sark_shmsg_free>
    3a96:	e77e      	b.n	3996 <sark_int+0x4a>
    3a98:	00404608 	.word	0x00404608
    3a9c:	5ec00000 	.word	0x5ec00000
    3aa0:	e200000c 	.word	0xe200000c
    3aa4:	00404644 	.word	0x00404644
    3aa8:	1f000018 	.word	0x1f000018
    3aac:	00404888 	.word	0x00404888
    3ab0:	1f000010 	.word	0x1f000010

00003ab4 <event_wait>:
    3ab4:	4b12      	ldr	r3, [pc, #72]	; (3b00 <event_wait+0x4c>)
    3ab6:	b570      	push	{r4, r5, r6, lr}
    3ab8:	681b      	ldr	r3, [r3, #0]
    3aba:	4d12      	ldr	r5, [pc, #72]	; (3b04 <event_wait+0x50>)
    3abc:	2401      	movs	r4, #1
    3abe:	409c      	lsls	r4, r3
    3ac0:	7eab      	ldrb	r3, [r5, #26]
    3ac2:	4e11      	ldr	r6, [pc, #68]	; (3b08 <event_wait+0x54>)
    3ac4:	2b00      	cmp	r3, #0
    3ac6:	d011      	beq.n	3aec <event_wait+0x38>
    3ac8:	2009      	movs	r0, #9
    3aca:	f7ff fd35 	bl	3538 <sark_cpu_state>
    3ace:	6833      	ldr	r3, [r6, #0]
    3ad0:	0022      	movs	r2, r4
    3ad2:	439a      	bics	r2, r3
    3ad4:	d107      	bne.n	3ae6 <event_wait+0x32>
    3ad6:	7eaa      	ldrb	r2, [r5, #26]
    3ad8:	2301      	movs	r3, #1
    3ada:	4053      	eors	r3, r2
    3adc:	2007      	movs	r0, #7
    3ade:	76ab      	strb	r3, [r5, #26]
    3ae0:	f7ff fd2a 	bl	3538 <sark_cpu_state>
    3ae4:	bd70      	pop	{r4, r5, r6, pc}
    3ae6:	f7fc eb7c 	blx	1e0 <cpu_wfi>
    3aea:	e7f0      	b.n	3ace <event_wait+0x1a>
    3aec:	2008      	movs	r0, #8
    3aee:	f7ff fd23 	bl	3538 <sark_cpu_state>
    3af2:	6833      	ldr	r3, [r6, #0]
    3af4:	4223      	tst	r3, r4
    3af6:	d0ee      	beq.n	3ad6 <event_wait+0x22>
    3af8:	f7fc eb72 	blx	1e0 <cpu_wfi>
    3afc:	e7f9      	b.n	3af2 <event_wait+0x3e>
    3afe:	46c0      	nop			; (mov r8, r8)
    3b00:	00404608 	.word	0x00404608
    3b04:	00404644 	.word	0x00404644
    3b08:	e2000058 	.word	0xe2000058

00003b0c <event_pause>:
    3b0c:	b570      	push	{r4, r5, r6, lr}
    3b0e:	1e05      	subs	r5, r0, #0
    3b10:	4c08      	ldr	r4, [pc, #32]	; (3b34 <event_pause+0x28>)
    3b12:	d00b      	beq.n	3b2c <event_pause+0x20>
    3b14:	2301      	movs	r3, #1
    3b16:	200a      	movs	r0, #10
    3b18:	7623      	strb	r3, [r4, #24]
    3b1a:	f7ff fd0d 	bl	3538 <sark_cpu_state>
    3b1e:	6b23      	ldr	r3, [r4, #48]	; 0x30
    3b20:	2b00      	cmp	r3, #0
    3b22:	d002      	beq.n	3b2a <event_pause+0x1e>
    3b24:	6b61      	ldr	r1, [r4, #52]	; 0x34
    3b26:	0028      	movs	r0, r5
    3b28:	4798      	blx	r3
    3b2a:	bd70      	pop	{r4, r5, r6, pc}
    3b2c:	7620      	strb	r0, [r4, #24]
    3b2e:	2007      	movs	r0, #7
    3b30:	e7f3      	b.n	3b1a <event_pause+0xe>
    3b32:	46c0      	nop			; (mov r8, r8)
    3b34:	00404644 	.word	0x00404644

00003b38 <event_stop>:
    3b38:	4b03      	ldr	r3, [pc, #12]	; (3b48 <event_stop+0x10>)
    3b3a:	2202      	movs	r2, #2
    3b3c:	761a      	strb	r2, [r3, #24]
    3b3e:	4a03      	ldr	r2, [pc, #12]	; (3b4c <event_stop+0x14>)
    3b40:	6cd9      	ldr	r1, [r3, #76]	; 0x4c
    3b42:	6011      	str	r1, [r2, #0]
    3b44:	6398      	str	r0, [r3, #56]	; 0x38
    3b46:	4770      	bx	lr
    3b48:	00404644 	.word	0x00404644
    3b4c:	1f000014 	.word	0x1f000014

00003b50 <event_alloc>:
    3b50:	b570      	push	{r4, r5, r6, lr}
    3b52:	2118      	movs	r1, #24
    3b54:	0006      	movs	r6, r0
    3b56:	f000 f8db 	bl	3d10 <sark_alloc>
    3b5a:	4d0b      	ldr	r5, [pc, #44]	; (3b88 <event_alloc+0x38>)
    3b5c:	1e04      	subs	r4, r0, #0
    3b5e:	d00d      	beq.n	3b7c <event_alloc+0x2c>
    3b60:	0031      	movs	r1, r6
    3b62:	2218      	movs	r2, #24
    3b64:	f7ff fcfa 	bl	355c <sark_block_init>
    3b68:	0006      	movs	r6, r0
    3b6a:	f7fc eb2e 	blx	1c8 <cpu_int_disable>
    3b6e:	682b      	ldr	r3, [r5, #0]
    3b70:	6033      	str	r3, [r6, #0]
    3b72:	602c      	str	r4, [r5, #0]
    3b74:	f7fc eb30 	blx	1d8 <cpu_int_restore>
    3b78:	2001      	movs	r0, #1
    3b7a:	bd70      	pop	{r4, r5, r6, pc}
    3b7c:	696a      	ldr	r2, [r5, #20]
    3b7e:	2308      	movs	r3, #8
    3b80:	4313      	orrs	r3, r2
    3b82:	616b      	str	r3, [r5, #20]
    3b84:	e7f9      	b.n	3b7a <event_alloc+0x2a>
    3b86:	46c0      	nop			; (mov r8, r8)
    3b88:	00404644 	.word	0x00404644

00003b8c <sark_vic_init>:
    3b8c:	4b0b      	ldr	r3, [pc, #44]	; (3bbc <sark_vic_init+0x30>)
    3b8e:	2201      	movs	r2, #1
    3b90:	4252      	negs	r2, r2
    3b92:	b510      	push	{r4, lr}
    3b94:	601a      	str	r2, [r3, #0]
    3b96:	4b0a      	ldr	r3, [pc, #40]	; (3bc0 <sark_vic_init+0x34>)
    3b98:	2200      	movs	r2, #0
    3b9a:	601a      	str	r2, [r3, #0]
    3b9c:	4b09      	ldr	r3, [pc, #36]	; (3bc4 <sark_vic_init+0x38>)
    3b9e:	4c0a      	ldr	r4, [pc, #40]	; (3bc8 <sark_vic_init+0x3c>)
    3ba0:	601a      	str	r2, [r3, #0]
    3ba2:	490a      	ldr	r1, [pc, #40]	; (3bcc <sark_vic_init+0x40>)
    3ba4:	4b0a      	ldr	r3, [pc, #40]	; (3bd0 <sark_vic_init+0x44>)
    3ba6:	1e58      	subs	r0, r3, #1
    3ba8:	601a      	str	r2, [r3, #0]
    3baa:	38ff      	subs	r0, #255	; 0xff
    3bac:	3304      	adds	r3, #4
    3bae:	6004      	str	r4, [r0, #0]
    3bb0:	428b      	cmp	r3, r1
    3bb2:	d1f8      	bne.n	3ba6 <sark_vic_init+0x1a>
    3bb4:	4b07      	ldr	r3, [pc, #28]	; (3bd4 <sark_vic_init+0x48>)
    3bb6:	4a08      	ldr	r2, [pc, #32]	; (3bd8 <sark_vic_init+0x4c>)
    3bb8:	601a      	str	r2, [r3, #0]
    3bba:	bd10      	pop	{r4, pc}
    3bbc:	1f000014 	.word	0x1f000014
    3bc0:	1f00000c 	.word	0x1f00000c
    3bc4:	1f000030 	.word	0x1f000030
    3bc8:	00000108 	.word	0x00000108
    3bcc:	1f000240 	.word	0x1f000240
    3bd0:	1f000200 	.word	0x1f000200
    3bd4:	1f000034 	.word	0x1f000034
    3bd8:	00000330 	.word	0x00000330

00003bdc <sark_vic_set>:
    3bdc:	b510      	push	{r4, lr}
    3bde:	2810      	cmp	r0, #16
    3be0:	d10b      	bne.n	3bfa <sark_vic_set+0x1e>
    3be2:	62c3      	str	r3, [r0, #44]	; 0x2c
    3be4:	2301      	movs	r3, #1
    3be6:	480a      	ldr	r0, [pc, #40]	; (3c10 <sark_vic_set+0x34>)
    3be8:	408b      	lsls	r3, r1
    3bea:	6003      	str	r3, [r0, #0]
    3bec:	2a00      	cmp	r2, #0
    3bee:	d003      	beq.n	3bf8 <sark_vic_set+0x1c>
    3bf0:	2301      	movs	r3, #1
    3bf2:	4a08      	ldr	r2, [pc, #32]	; (3c14 <sark_vic_set+0x38>)
    3bf4:	408b      	lsls	r3, r1
    3bf6:	6013      	str	r3, [r2, #0]
    3bf8:	bd10      	pop	{r4, pc}
    3bfa:	3040      	adds	r0, #64	; 0x40
    3bfc:	24f8      	movs	r4, #248	; 0xf8
    3bfe:	0080      	lsls	r0, r0, #2
    3c00:	0564      	lsls	r4, r4, #21
    3c02:	1904      	adds	r4, r0, r4
    3c04:	6023      	str	r3, [r4, #0]
    3c06:	4b04      	ldr	r3, [pc, #16]	; (3c18 <sark_vic_set+0x3c>)
    3c08:	18c0      	adds	r0, r0, r3
    3c0a:	2320      	movs	r3, #32
    3c0c:	430b      	orrs	r3, r1
    3c0e:	e7ec      	b.n	3bea <sark_vic_set+0xe>
    3c10:	1f00000c 	.word	0x1f00000c
    3c14:	1f000010 	.word	0x1f000010
    3c18:	1f000100 	.word	0x1f000100

00003c1c <sark_fiq_han>:
    3c1c:	e92d000c 	push	{r2, r3}
    3c20:	e59f2018 	ldr	r2, [pc, #24]	; 3c40 <sark_fiq_han+0x24>
    3c24:	e3a03202 	mov	r3, #536870912	; 0x20000000
    3c28:	e5933014 	ldr	r3, [r3, #20]
    3c2c:	e5923038 	ldr	r3, [r2, #56]	; 0x38
    3c30:	e2833001 	add	r3, r3, #1
    3c34:	e5823038 	str	r3, [r2, #56]	; 0x38
    3c38:	e8bd000c 	pop	{r2, r3}
    3c3c:	e25ef004 	subs	pc, lr, #4
    3c40:	00404608 	.word	0x00404608

00003c44 <sark_xalloc>:
    3c44:	b5f7      	push	{r0, r1, r2, r4, r5, r6, r7, lr}
    3c46:	0006      	movs	r6, r0
    3c48:	0017      	movs	r7, r2
    3c4a:	2900      	cmp	r1, #0
    3c4c:	d101      	bne.n	3c52 <sark_xalloc+0xe>
    3c4e:	2000      	movs	r0, #0
    3c50:	e056      	b.n	3d00 <sark_xalloc+0xbc>
    3c52:	2aff      	cmp	r2, #255	; 0xff
    3c54:	d8fb      	bhi.n	3c4e <sark_xalloc+0xa>
    3c56:	0a1d      	lsrs	r5, r3, #8
    3c58:	079a      	lsls	r2, r3, #30
    3c5a:	d401      	bmi.n	3c60 <sark_xalloc+0x1c>
    3c5c:	225c      	movs	r2, #92	; 0x5c
    3c5e:	7815      	ldrb	r5, [r2, #0]
    3c60:	022d      	lsls	r5, r5, #8
    3c62:	19ed      	adds	r5, r5, r7
    3c64:	2f00      	cmp	r7, #0
    3c66:	d005      	beq.n	3c74 <sark_xalloc+0x30>
    3c68:	4a27      	ldr	r2, [pc, #156]	; (3d08 <sark_xalloc+0xc4>)
    3c6a:	00a8      	lsls	r0, r5, #2
    3c6c:	6812      	ldr	r2, [r2, #0]
    3c6e:	5882      	ldr	r2, [r0, r2]
    3c70:	2a00      	cmp	r2, #0
    3c72:	d1ec      	bne.n	3c4e <sark_xalloc+0xa>
    3c74:	2203      	movs	r2, #3
    3c76:	3103      	adds	r1, #3
    3c78:	4391      	bics	r1, r2
    3c7a:	3a02      	subs	r2, #2
    3c7c:	3108      	adds	r1, #8
    3c7e:	4013      	ands	r3, r2
    3c80:	9101      	str	r1, [sp, #4]
    3c82:	9300      	str	r3, [sp, #0]
    3c84:	d003      	beq.n	3c8e <sark_xalloc+0x4a>
    3c86:	2006      	movs	r0, #6
    3c88:	f7fc eaae 	blx	1e8 <sark_lock_get>
    3c8c:	4684      	mov	ip, r0
    3c8e:	6834      	ldr	r4, [r6, #0]
    3c90:	2200      	movs	r2, #0
    3c92:	2c00      	cmp	r4, #0
    3c94:	d107      	bne.n	3ca6 <sark_xalloc+0x62>
    3c96:	9b00      	ldr	r3, [sp, #0]
    3c98:	2b00      	cmp	r3, #0
    3c9a:	d0d8      	beq.n	3c4e <sark_xalloc+0xa>
    3c9c:	2106      	movs	r1, #6
    3c9e:	4660      	mov	r0, ip
    3ca0:	f7fc eab4 	blx	20c <sark_lock_free>
    3ca4:	e7d3      	b.n	3c4e <sark_xalloc+0xa>
    3ca6:	9b01      	ldr	r3, [sp, #4]
    3ca8:	6821      	ldr	r1, [r4, #0]
    3caa:	18e3      	adds	r3, r4, r3
    3cac:	429c      	cmp	r4, r3
    3cae:	d2f2      	bcs.n	3c96 <sark_xalloc+0x52>
    3cb0:	4299      	cmp	r1, r3
    3cb2:	d202      	bcs.n	3cba <sark_xalloc+0x76>
    3cb4:	0022      	movs	r2, r4
    3cb6:	6864      	ldr	r4, [r4, #4]
    3cb8:	e7eb      	b.n	3c92 <sark_xalloc+0x4e>
    3cba:	0018      	movs	r0, r3
    3cbc:	3008      	adds	r0, #8
    3cbe:	4281      	cmp	r1, r0
    3cc0:	d904      	bls.n	3ccc <sark_xalloc+0x88>
    3cc2:	6019      	str	r1, [r3, #0]
    3cc4:	6861      	ldr	r1, [r4, #4]
    3cc6:	6023      	str	r3, [r4, #0]
    3cc8:	6059      	str	r1, [r3, #4]
    3cca:	6063      	str	r3, [r4, #4]
    3ccc:	6863      	ldr	r3, [r4, #4]
    3cce:	2a00      	cmp	r2, #0
    3cd0:	d017      	beq.n	3d02 <sark_xalloc+0xbe>
    3cd2:	6053      	str	r3, [r2, #4]
    3cd4:	68f3      	ldr	r3, [r6, #12]
    3cd6:	9a01      	ldr	r2, [sp, #4]
    3cd8:	1a99      	subs	r1, r3, r2
    3cda:	9b00      	ldr	r3, [sp, #0]
    3cdc:	60f1      	str	r1, [r6, #12]
    3cde:	2b00      	cmp	r3, #0
    3ce0:	d003      	beq.n	3cea <sark_xalloc+0xa6>
    3ce2:	2106      	movs	r1, #6
    3ce4:	4660      	mov	r0, ip
    3ce6:	f7fc ea92 	blx	20c <sark_lock_free>
    3cea:	4b08      	ldr	r3, [pc, #32]	; (3d0c <sark_xalloc+0xc8>)
    3cec:	0020      	movs	r0, r4
    3cee:	18eb      	adds	r3, r5, r3
    3cf0:	6063      	str	r3, [r4, #4]
    3cf2:	3008      	adds	r0, #8
    3cf4:	2f00      	cmp	r7, #0
    3cf6:	d003      	beq.n	3d00 <sark_xalloc+0xbc>
    3cf8:	4b03      	ldr	r3, [pc, #12]	; (3d08 <sark_xalloc+0xc4>)
    3cfa:	00ad      	lsls	r5, r5, #2
    3cfc:	681b      	ldr	r3, [r3, #0]
    3cfe:	50e8      	str	r0, [r5, r3]
    3d00:	bdfe      	pop	{r1, r2, r3, r4, r5, r6, r7, pc}
    3d02:	6033      	str	r3, [r6, #0]
    3d04:	e7e6      	b.n	3cd4 <sark_xalloc+0x90>
    3d06:	46c0      	nop			; (mov r8, r8)
    3d08:	e5007fdc 	.word	0xe5007fdc
    3d0c:	ffff0000 	.word	0xffff0000

00003d10 <sark_alloc>:
    3d10:	4341      	muls	r1, r0
    3d12:	4804      	ldr	r0, [pc, #16]	; (3d24 <sark_alloc+0x14>)
    3d14:	2300      	movs	r3, #0
    3d16:	b510      	push	{r4, lr}
    3d18:	001a      	movs	r2, r3
    3d1a:	6980      	ldr	r0, [r0, #24]
    3d1c:	f7ff ff92 	bl	3c44 <sark_xalloc>
    3d20:	bd10      	pop	{r4, pc}
    3d22:	46c0      	nop			; (mov r8, r8)
    3d24:	00404608 	.word	0x00404608

00003d28 <sark_xfree>:
    3d28:	b5f7      	push	{r0, r1, r2, r4, r5, r6, r7, lr}
    3d2a:	0006      	movs	r6, r0
    3d2c:	000c      	movs	r4, r1
    3d2e:	0015      	movs	r5, r2
    3d30:	2900      	cmp	r1, #0
    3d32:	d102      	bne.n	3d3a <sark_xfree+0x12>
    3d34:	2010      	movs	r0, #16
    3d36:	f7fc e9fa 	blx	12c <rt_error>
    3d3a:	2301      	movs	r3, #1
    3d3c:	401d      	ands	r5, r3
    3d3e:	d003      	beq.n	3d48 <sark_xfree+0x20>
    3d40:	2006      	movs	r0, #6
    3d42:	f7fc ea52 	blx	1e8 <sark_lock_get>
    3d46:	9001      	str	r0, [sp, #4]
    3d48:	0021      	movs	r1, r4
    3d4a:	3908      	subs	r1, #8
    3d4c:	684a      	ldr	r2, [r1, #4]
    3d4e:	6833      	ldr	r3, [r6, #0]
    3d50:	0610      	lsls	r0, r2, #24
    3d52:	0e00      	lsrs	r0, r0, #24
    3d54:	d006      	beq.n	3d64 <sark_xfree+0x3c>
    3d56:	481c      	ldr	r0, [pc, #112]	; (3dc8 <sark_xfree+0xa0>)
    3d58:	0412      	lsls	r2, r2, #16
    3d5a:	0c12      	lsrs	r2, r2, #16
    3d5c:	6800      	ldr	r0, [r0, #0]
    3d5e:	0092      	lsls	r2, r2, #2
    3d60:	2700      	movs	r7, #0
    3d62:	5017      	str	r7, [r2, r0]
    3d64:	3c08      	subs	r4, #8
    3d66:	6820      	ldr	r0, [r4, #0]
    3d68:	68f7      	ldr	r7, [r6, #12]
    3d6a:	1a42      	subs	r2, r0, r1
    3d6c:	18ba      	adds	r2, r7, r2
    3d6e:	60f2      	str	r2, [r6, #12]
    3d70:	2200      	movs	r2, #0
    3d72:	2b00      	cmp	r3, #0
    3d74:	d10d      	bne.n	3d92 <sark_xfree+0x6a>
    3d76:	6063      	str	r3, [r4, #4]
    3d78:	2a00      	cmp	r2, #0
    3d7a:	d00f      	beq.n	3d9c <sark_xfree+0x74>
    3d7c:	6051      	str	r1, [r2, #4]
    3d7e:	2b00      	cmp	r3, #0
    3d80:	d116      	bne.n	3db0 <sark_xfree+0x88>
    3d82:	6813      	ldr	r3, [r2, #0]
    3d84:	4299      	cmp	r1, r3
    3d86:	d10c      	bne.n	3da2 <sark_xfree+0x7a>
    3d88:	6823      	ldr	r3, [r4, #0]
    3d8a:	6013      	str	r3, [r2, #0]
    3d8c:	6863      	ldr	r3, [r4, #4]
    3d8e:	6053      	str	r3, [r2, #4]
    3d90:	e007      	b.n	3da2 <sark_xfree+0x7a>
    3d92:	428b      	cmp	r3, r1
    3d94:	d8ef      	bhi.n	3d76 <sark_xfree+0x4e>
    3d96:	001a      	movs	r2, r3
    3d98:	685b      	ldr	r3, [r3, #4]
    3d9a:	e7ea      	b.n	3d72 <sark_xfree+0x4a>
    3d9c:	6031      	str	r1, [r6, #0]
    3d9e:	2b00      	cmp	r3, #0
    3da0:	d10f      	bne.n	3dc2 <sark_xfree+0x9a>
    3da2:	2d00      	cmp	r5, #0
    3da4:	d003      	beq.n	3dae <sark_xfree+0x86>
    3da6:	2106      	movs	r1, #6
    3da8:	9801      	ldr	r0, [sp, #4]
    3daa:	f7fc ea30 	blx	20c <sark_lock_free>
    3dae:	bdf7      	pop	{r0, r1, r2, r4, r5, r6, r7, pc}
    3db0:	4298      	cmp	r0, r3
    3db2:	d1e6      	bne.n	3d82 <sark_xfree+0x5a>
    3db4:	6803      	ldr	r3, [r0, #0]
    3db6:	6023      	str	r3, [r4, #0]
    3db8:	6843      	ldr	r3, [r0, #4]
    3dba:	6063      	str	r3, [r4, #4]
    3dbc:	2a00      	cmp	r2, #0
    3dbe:	d1e0      	bne.n	3d82 <sark_xfree+0x5a>
    3dc0:	e7ef      	b.n	3da2 <sark_xfree+0x7a>
    3dc2:	4298      	cmp	r0, r3
    3dc4:	d1ed      	bne.n	3da2 <sark_xfree+0x7a>
    3dc6:	e7f5      	b.n	3db4 <sark_xfree+0x8c>
    3dc8:	e5007fdc 	.word	0xe5007fdc

00003dcc <sark_heap_init>:
    3dcc:	0003      	movs	r3, r0
    3dce:	3908      	subs	r1, #8
    3dd0:	3310      	adds	r3, #16
    3dd2:	6043      	str	r3, [r0, #4]
    3dd4:	6003      	str	r3, [r0, #0]
    3dd6:	1acb      	subs	r3, r1, r3
    3dd8:	3b08      	subs	r3, #8
    3dda:	60c3      	str	r3, [r0, #12]
    3ddc:	2300      	movs	r3, #0
    3dde:	6101      	str	r1, [r0, #16]
    3de0:	6081      	str	r1, [r0, #8]
    3de2:	600b      	str	r3, [r1, #0]
    3de4:	6143      	str	r3, [r0, #20]
    3de6:	604b      	str	r3, [r1, #4]
    3de8:	4770      	bx	lr
	...

00003dec <io_buf_init>:
    3dec:	b570      	push	{r4, r5, r6, lr}
    3dee:	4d0c      	ldr	r5, [pc, #48]	; (3e20 <io_buf_init+0x34>)
    3df0:	480c      	ldr	r0, [pc, #48]	; (3e24 <io_buf_init+0x38>)
    3df2:	6d29      	ldr	r1, [r5, #80]	; 0x50
    3df4:	2301      	movs	r3, #1
    3df6:	3110      	adds	r1, #16
    3df8:	2200      	movs	r2, #0
    3dfa:	6800      	ldr	r0, [r0, #0]
    3dfc:	f7ff ff22 	bl	3c44 <sark_xalloc>
    3e00:	1e04      	subs	r4, r0, #0
    3e02:	d102      	bne.n	3e0a <io_buf_init+0x1e>
    3e04:	200e      	movs	r0, #14
    3e06:	f7fc e992 	blx	12c <rt_error>
    3e0a:	69eb      	ldr	r3, [r5, #28]
    3e0c:	6063      	str	r3, [r4, #4]
    3e0e:	4a06      	ldr	r2, [pc, #24]	; (3e28 <io_buf_init+0x3c>)
    3e10:	8b2b      	ldrh	r3, [r5, #24]
    3e12:	60a3      	str	r3, [r4, #8]
    3e14:	2300      	movs	r3, #0
    3e16:	0020      	movs	r0, r4
    3e18:	6023      	str	r3, [r4, #0]
    3e1a:	6013      	str	r3, [r2, #0]
    3e1c:	60e3      	str	r3, [r4, #12]
    3e1e:	bd70      	pop	{r4, r5, r6, pc}
    3e20:	e5007f00 	.word	0xe5007f00
    3e24:	e5007fd0 	.word	0xe5007fd0
    3e28:	004042b0 	.word	0x004042b0

00003e2c <sark_io_buf_reset>:
    3e2c:	b570      	push	{r4, r5, r6, lr}
    3e2e:	f7fc e9cc 	blx	1c8 <cpu_int_disable>
    3e32:	4b0c      	ldr	r3, [pc, #48]	; (3e64 <sark_io_buf_reset+0x38>)
    3e34:	4a0c      	ldr	r2, [pc, #48]	; (3e68 <sark_io_buf_reset+0x3c>)
    3e36:	69db      	ldr	r3, [r3, #28]
    3e38:	6d9b      	ldr	r3, [r3, #88]	; 0x58
    3e3a:	6013      	str	r3, [r2, #0]
    3e3c:	2200      	movs	r2, #0
    3e3e:	681c      	ldr	r4, [r3, #0]
    3e40:	60da      	str	r2, [r3, #12]
    3e42:	601a      	str	r2, [r3, #0]
    3e44:	4b09      	ldr	r3, [pc, #36]	; (3e6c <sark_io_buf_reset+0x40>)
    3e46:	601a      	str	r2, [r3, #0]
    3e48:	f7fc e9c6 	blx	1d8 <cpu_int_restore>
    3e4c:	2c00      	cmp	r4, #0
    3e4e:	d100      	bne.n	3e52 <sark_io_buf_reset+0x26>
    3e50:	bd70      	pop	{r4, r5, r6, pc}
    3e52:	4b07      	ldr	r3, [pc, #28]	; (3e70 <sark_io_buf_reset+0x44>)
    3e54:	6825      	ldr	r5, [r4, #0]
    3e56:	0021      	movs	r1, r4
    3e58:	2201      	movs	r2, #1
    3e5a:	6818      	ldr	r0, [r3, #0]
    3e5c:	f7ff ff64 	bl	3d28 <sark_xfree>
    3e60:	002c      	movs	r4, r5
    3e62:	e7f3      	b.n	3e4c <sark_io_buf_reset+0x20>
    3e64:	00404608 	.word	0x00404608
    3e68:	004042b4 	.word	0x004042b4
    3e6c:	004042b0 	.word	0x004042b0
    3e70:	e5007fd0 	.word	0xe5007fd0

00003e74 <io_put_char>:
    3e74:	b570      	push	{r4, r5, r6, lr}
    3e76:	000d      	movs	r5, r1
    3e78:	2803      	cmp	r0, #3
    3e7a:	d907      	bls.n	3e8c <io_put_char+0x18>
    3e7c:	4932      	ldr	r1, [pc, #200]	; (3f48 <io_put_char+0xd4>)
    3e7e:	680a      	ldr	r2, [r1, #0]
    3e80:	1c53      	adds	r3, r2, #1
    3e82:	5485      	strb	r5, [r0, r2]
    3e84:	2200      	movs	r2, #0
    3e86:	600b      	str	r3, [r1, #0]
    3e88:	54c2      	strb	r2, [r0, r3]
    3e8a:	bd70      	pop	{r4, r5, r6, pc}
    3e8c:	2800      	cmp	r0, #0
    3e8e:	d136      	bne.n	3efe <io_put_char+0x8a>
    3e90:	4e2e      	ldr	r6, [pc, #184]	; (3f4c <io_put_char+0xd8>)
    3e92:	6833      	ldr	r3, [r6, #0]
    3e94:	2b00      	cmp	r3, #0
    3e96:	d11c      	bne.n	3ed2 <io_put_char+0x5e>
    3e98:	2192      	movs	r1, #146	; 0x92
    3e9a:	0049      	lsls	r1, r1, #1
    3e9c:	3001      	adds	r0, #1
    3e9e:	f7ff ff37 	bl	3d10 <sark_alloc>
    3ea2:	1e04      	subs	r4, r0, #0
    3ea4:	d102      	bne.n	3eac <io_put_char+0x38>
    3ea6:	200e      	movs	r0, #14
    3ea8:	f7fc e940 	blx	12c <rt_error>
    3eac:	2307      	movs	r3, #7
    3eae:	7223      	strb	r3, [r4, #8]
    3eb0:	2300      	movs	r3, #0
    3eb2:	7263      	strb	r3, [r4, #9]
    3eb4:	33ff      	adds	r3, #255	; 0xff
    3eb6:	72a3      	strb	r3, [r4, #10]
    3eb8:	4b25      	ldr	r3, [pc, #148]	; (3f50 <io_put_char+0xdc>)
    3eba:	889a      	ldrh	r2, [r3, #4]
    3ebc:	81a2      	strh	r2, [r4, #12]
    3ebe:	4a25      	ldr	r2, [pc, #148]	; (3f54 <io_put_char+0xe0>)
    3ec0:	6812      	ldr	r2, [r2, #0]
    3ec2:	72e2      	strb	r2, [r4, #11]
    3ec4:	881b      	ldrh	r3, [r3, #0]
    3ec6:	81e3      	strh	r3, [r4, #14]
    3ec8:	2340      	movs	r3, #64	; 0x40
    3eca:	8223      	strh	r3, [r4, #16]
    3ecc:	3b34      	subs	r3, #52	; 0x34
    3ece:	80a3      	strh	r3, [r4, #4]
    3ed0:	6034      	str	r4, [r6, #0]
    3ed2:	6830      	ldr	r0, [r6, #0]
    3ed4:	8883      	ldrh	r3, [r0, #4]
    3ed6:	1c5a      	adds	r2, r3, #1
    3ed8:	18c3      	adds	r3, r0, r3
    3eda:	8082      	strh	r2, [r0, #4]
    3edc:	721d      	strb	r5, [r3, #8]
    3ede:	2d0a      	cmp	r5, #10
    3ee0:	d006      	beq.n	3ef0 <io_put_char+0x7c>
    3ee2:	2d00      	cmp	r5, #0
    3ee4:	d004      	beq.n	3ef0 <io_put_char+0x7c>
    3ee6:	8882      	ldrh	r2, [r0, #4]
    3ee8:	2386      	movs	r3, #134	; 0x86
    3eea:	005b      	lsls	r3, r3, #1
    3eec:	429a      	cmp	r2, r3
    3eee:	d1cc      	bne.n	3e8a <io_put_char+0x16>
    3ef0:	210a      	movs	r1, #10
    3ef2:	f7ff fc43 	bl	377c <sark_msg_send>
    3ef6:	6833      	ldr	r3, [r6, #0]
    3ef8:	220c      	movs	r2, #12
    3efa:	809a      	strh	r2, [r3, #4]
    3efc:	e7c5      	b.n	3e8a <io_put_char+0x16>
    3efe:	2802      	cmp	r0, #2
    3f00:	d1c3      	bne.n	3e8a <io_put_char+0x16>
    3f02:	4c15      	ldr	r4, [pc, #84]	; (3f58 <io_put_char+0xe4>)
    3f04:	6823      	ldr	r3, [r4, #0]
    3f06:	2b00      	cmp	r3, #0
    3f08:	d105      	bne.n	3f16 <io_put_char+0xa2>
    3f0a:	4b12      	ldr	r3, [pc, #72]	; (3f54 <io_put_char+0xe0>)
    3f0c:	69de      	ldr	r6, [r3, #28]
    3f0e:	f7ff ff6d 	bl	3dec <io_buf_init>
    3f12:	65b0      	str	r0, [r6, #88]	; 0x58
    3f14:	6020      	str	r0, [r4, #0]
    3f16:	4911      	ldr	r1, [pc, #68]	; (3f5c <io_put_char+0xe8>)
    3f18:	6826      	ldr	r6, [r4, #0]
    3f1a:	680a      	ldr	r2, [r1, #0]
    3f1c:	1c53      	adds	r3, r2, #1
    3f1e:	18b2      	adds	r2, r6, r2
    3f20:	7415      	strb	r5, [r2, #16]
    3f22:	4a0b      	ldr	r2, [pc, #44]	; (3f50 <io_put_char+0xdc>)
    3f24:	600b      	str	r3, [r1, #0]
    3f26:	6d12      	ldr	r2, [r2, #80]	; 0x50
    3f28:	4293      	cmp	r3, r2
    3f2a:	d107      	bne.n	3f3c <io_put_char+0xc8>
    3f2c:	60f3      	str	r3, [r6, #12]
    3f2e:	f7ff ff5d 	bl	3dec <io_buf_init>
    3f32:	6823      	ldr	r3, [r4, #0]
    3f34:	6030      	str	r0, [r6, #0]
    3f36:	681b      	ldr	r3, [r3, #0]
    3f38:	6023      	str	r3, [r4, #0]
    3f3a:	e7a6      	b.n	3e8a <io_put_char+0x16>
    3f3c:	2d0a      	cmp	r5, #10
    3f3e:	d001      	beq.n	3f44 <io_put_char+0xd0>
    3f40:	2d00      	cmp	r5, #0
    3f42:	d1a2      	bne.n	3e8a <io_put_char+0x16>
    3f44:	60f3      	str	r3, [r6, #12]
    3f46:	e7a0      	b.n	3e8a <io_put_char+0x16>
    3f48:	004042bc 	.word	0x004042bc
    3f4c:	004042b8 	.word	0x004042b8
    3f50:	e5007f00 	.word	0xe5007f00
    3f54:	00404608 	.word	0x00404608
    3f58:	004042b4 	.word	0x004042b4
    3f5c:	004042b0 	.word	0x004042b0

00003f60 <io_put_fixed>:
    3f60:	b5f0      	push	{r4, r5, r6, r7, lr}
    3f62:	b08d      	sub	sp, #52	; 0x34
    3f64:	9001      	str	r0, [sp, #4]
    3f66:	0017      	movs	r7, r2
    3f68:	2b0c      	cmp	r3, #12
    3f6a:	d900      	bls.n	3f6e <io_put_fixed+0xe>
    3f6c:	230c      	movs	r3, #12
    3f6e:	aa05      	add	r2, sp, #20
    3f70:	4694      	mov	ip, r2
    3f72:	0008      	movs	r0, r1
    3f74:	2400      	movs	r4, #0
    3f76:	449c      	add	ip, r3
    3f78:	0400      	lsls	r0, r0, #16
    3f7a:	0c00      	lsrs	r0, r0, #16
    3f7c:	220a      	movs	r2, #10
    3f7e:	4342      	muls	r2, r0
    3f80:	0010      	movs	r0, r2
    3f82:	429c      	cmp	r4, r3
    3f84:	d11f      	bne.n	3fc6 <io_put_fixed+0x66>
    3f86:	0c10      	lsrs	r0, r2, #16
    3f88:	2204      	movs	r2, #4
    3f8a:	4282      	cmp	r2, r0
    3f8c:	4192      	sbcs	r2, r2
    3f8e:	2530      	movs	r5, #48	; 0x30
    3f90:	4252      	negs	r2, r2
    3f92:	2000      	movs	r0, #0
    3f94:	ae05      	add	r6, sp, #20
    3f96:	46ac      	mov	ip, r5
    3f98:	2a00      	cmp	r2, #0
    3f9a:	d001      	beq.n	3fa0 <io_put_fixed+0x40>
    3f9c:	4283      	cmp	r3, r0
    3f9e:	d119      	bne.n	3fd4 <io_put_fixed+0x74>
    3fa0:	2b00      	cmp	r3, #0
    3fa2:	d002      	beq.n	3faa <io_put_fixed+0x4a>
    3fa4:	232e      	movs	r3, #46	; 0x2e
    3fa6:	5533      	strb	r3, [r6, r4]
    3fa8:	3401      	adds	r4, #1
    3faa:	0c09      	lsrs	r1, r1, #16
    3fac:	1851      	adds	r1, r2, r1
    3fae:	a803      	add	r0, sp, #12
    3fb0:	f7fc e98e 	blx	2d0 <sark_div10>
    3fb4:	9b04      	ldr	r3, [sp, #16]
    3fb6:	9903      	ldr	r1, [sp, #12]
    3fb8:	3330      	adds	r3, #48	; 0x30
    3fba:	1c65      	adds	r5, r4, #1
    3fbc:	5533      	strb	r3, [r6, r4]
    3fbe:	2900      	cmp	r1, #0
    3fc0:	d013      	beq.n	3fea <io_put_fixed+0x8a>
    3fc2:	002c      	movs	r4, r5
    3fc4:	e7f3      	b.n	3fae <io_put_fixed+0x4e>
    3fc6:	3401      	adds	r4, #1
    3fc8:	0c02      	lsrs	r2, r0, #16
    3fca:	4266      	negs	r6, r4
    3fcc:	3230      	adds	r2, #48	; 0x30
    3fce:	4665      	mov	r5, ip
    3fd0:	55aa      	strb	r2, [r5, r6]
    3fd2:	e7d1      	b.n	3f78 <io_put_fixed+0x18>
    3fd4:	5c35      	ldrb	r5, [r6, r0]
    3fd6:	2d38      	cmp	r5, #56	; 0x38
    3fd8:	d903      	bls.n	3fe2 <io_put_fixed+0x82>
    3fda:	4665      	mov	r5, ip
    3fdc:	5435      	strb	r5, [r6, r0]
    3fde:	3001      	adds	r0, #1
    3fe0:	e7da      	b.n	3f98 <io_put_fixed+0x38>
    3fe2:	3501      	adds	r5, #1
    3fe4:	5435      	strb	r5, [r6, r0]
    3fe6:	2200      	movs	r2, #0
    3fe8:	e7f9      	b.n	3fde <io_put_fixed+0x7e>
    3fea:	9b13      	ldr	r3, [sp, #76]	; 0x4c
    3fec:	2b00      	cmp	r3, #0
    3fee:	d002      	beq.n	3ff6 <io_put_fixed+0x96>
    3ff0:	232d      	movs	r3, #45	; 0x2d
    3ff2:	5573      	strb	r3, [r6, r5]
    3ff4:	1ca5      	adds	r5, r4, #2
    3ff6:	1c6b      	adds	r3, r5, #1
    3ff8:	42bb      	cmp	r3, r7
    3ffa:	d308      	bcc.n	400e <io_put_fixed+0xae>
    3ffc:	3d01      	subs	r5, #1
    3ffe:	5d71      	ldrb	r1, [r6, r5]
    4000:	9801      	ldr	r0, [sp, #4]
    4002:	f7ff ff37 	bl	3e74 <io_put_char>
    4006:	2d00      	cmp	r5, #0
    4008:	d1f8      	bne.n	3ffc <io_put_fixed+0x9c>
    400a:	b00d      	add	sp, #52	; 0x34
    400c:	bdf0      	pop	{r4, r5, r6, r7, pc}
    400e:	9912      	ldr	r1, [sp, #72]	; 0x48
    4010:	9801      	ldr	r0, [sp, #4]
    4012:	f7ff ff2f 	bl	3e74 <io_put_char>
    4016:	3f01      	subs	r7, #1
    4018:	e7ed      	b.n	3ff6 <io_put_fixed+0x96>
	...

0000401c <io_printf>:
    401c:	b40e      	push	{r1, r2, r3}
    401e:	b5f0      	push	{r4, r5, r6, r7, lr}
    4020:	0004      	movs	r4, r0
    4022:	b08c      	sub	sp, #48	; 0x30
    4024:	2803      	cmp	r0, #3
    4026:	d051      	beq.n	40cc <io_printf+0xb0>
    4028:	d903      	bls.n	4032 <io_printf+0x16>
    402a:	4a9d      	ldr	r2, [pc, #628]	; (42a0 <io_printf+0x284>)
    402c:	2300      	movs	r3, #0
    402e:	7003      	strb	r3, [r0, #0]
    4030:	6013      	str	r3, [r2, #0]
    4032:	ab12      	add	r3, sp, #72	; 0x48
    4034:	9305      	str	r3, [sp, #20]
    4036:	9b11      	ldr	r3, [sp, #68]	; 0x44
    4038:	7819      	ldrb	r1, [r3, #0]
    403a:	2900      	cmp	r1, #0
    403c:	d046      	beq.n	40cc <io_printf+0xb0>
    403e:	2925      	cmp	r1, #37	; 0x25
    4040:	d005      	beq.n	404e <io_printf+0x32>
    4042:	3301      	adds	r3, #1
    4044:	9311      	str	r3, [sp, #68]	; 0x44
    4046:	0020      	movs	r0, r4
    4048:	f7ff ff14 	bl	3e74 <io_put_char>
    404c:	e7f3      	b.n	4036 <io_printf+0x1a>
    404e:	9b11      	ldr	r3, [sp, #68]	; 0x44
    4050:	7859      	ldrb	r1, [r3, #1]
    4052:	1c9a      	adds	r2, r3, #2
    4054:	2900      	cmp	r1, #0
    4056:	d039      	beq.n	40cc <io_printf+0xb0>
    4058:	2320      	movs	r3, #32
    405a:	9303      	str	r3, [sp, #12]
    405c:	2930      	cmp	r1, #48	; 0x30
    405e:	d100      	bne.n	4062 <io_printf+0x46>
    4060:	9103      	str	r1, [sp, #12]
    4062:	2700      	movs	r7, #0
    4064:	000b      	movs	r3, r1
    4066:	3b30      	subs	r3, #48	; 0x30
    4068:	9211      	str	r2, [sp, #68]	; 0x44
    406a:	2b09      	cmp	r3, #9
    406c:	d924      	bls.n	40b8 <io_printf+0x9c>
    406e:	2306      	movs	r3, #6
    4070:	292e      	cmp	r1, #46	; 0x2e
    4072:	d109      	bne.n	4088 <io_printf+0x6c>
    4074:	7811      	ldrb	r1, [r2, #0]
    4076:	2300      	movs	r3, #0
    4078:	3201      	adds	r2, #1
    407a:	0008      	movs	r0, r1
    407c:	3830      	subs	r0, #48	; 0x30
    407e:	9211      	str	r2, [sp, #68]	; 0x44
    4080:	2809      	cmp	r0, #9
    4082:	d928      	bls.n	40d6 <io_printf+0xba>
    4084:	2900      	cmp	r1, #0
    4086:	d021      	beq.n	40cc <io_printf+0xb0>
    4088:	296b      	cmp	r1, #107	; 0x6b
    408a:	d100      	bne.n	408e <io_printf+0x72>
    408c:	e0d2      	b.n	4234 <io_printf+0x218>
    408e:	d82e      	bhi.n	40ee <io_printf+0xd2>
    4090:	2963      	cmp	r1, #99	; 0x63
    4092:	d068      	beq.n	4166 <io_printf+0x14a>
    4094:	d826      	bhi.n	40e4 <io_printf+0xc8>
    4096:	294b      	cmp	r1, #75	; 0x4b
    4098:	d001      	beq.n	409e <io_printf+0x82>
    409a:	2952      	cmp	r1, #82	; 0x52
    409c:	d1d3      	bne.n	4046 <io_printf+0x2a>
    409e:	9905      	ldr	r1, [sp, #20]
    40a0:	1d0a      	adds	r2, r1, #4
    40a2:	9205      	str	r2, [sp, #20]
    40a4:	2200      	movs	r2, #0
    40a6:	9201      	str	r2, [sp, #4]
    40a8:	9a03      	ldr	r2, [sp, #12]
    40aa:	9200      	str	r2, [sp, #0]
    40ac:	6809      	ldr	r1, [r1, #0]
    40ae:	003a      	movs	r2, r7
    40b0:	0020      	movs	r0, r4
    40b2:	f7ff ff55 	bl	3f60 <io_put_fixed>
    40b6:	e7be      	b.n	4036 <io_printf+0x1a>
    40b8:	230a      	movs	r3, #10
    40ba:	437b      	muls	r3, r7
    40bc:	3201      	adds	r2, #1
    40be:	1859      	adds	r1, r3, r1
    40c0:	3930      	subs	r1, #48	; 0x30
    40c2:	1e53      	subs	r3, r2, #1
    40c4:	000f      	movs	r7, r1
    40c6:	7819      	ldrb	r1, [r3, #0]
    40c8:	2900      	cmp	r1, #0
    40ca:	d1cb      	bne.n	4064 <io_printf+0x48>
    40cc:	b00c      	add	sp, #48	; 0x30
    40ce:	bcf0      	pop	{r4, r5, r6, r7}
    40d0:	bc08      	pop	{r3}
    40d2:	b003      	add	sp, #12
    40d4:	4718      	bx	r3
    40d6:	200a      	movs	r0, #10
    40d8:	4358      	muls	r0, r3
    40da:	1843      	adds	r3, r0, r1
    40dc:	3b30      	subs	r3, #48	; 0x30
    40de:	7811      	ldrb	r1, [r2, #0]
    40e0:	3201      	adds	r2, #1
    40e2:	e7ca      	b.n	407a <io_printf+0x5e>
    40e4:	2964      	cmp	r1, #100	; 0x64
    40e6:	d049      	beq.n	417c <io_printf+0x160>
    40e8:	2966      	cmp	r1, #102	; 0x66
    40ea:	d0d8      	beq.n	409e <io_printf+0x82>
    40ec:	e7ab      	b.n	4046 <io_printf+0x2a>
    40ee:	2975      	cmp	r1, #117	; 0x75
    40f0:	d079      	beq.n	41e6 <io_printf+0x1ca>
    40f2:	d81a      	bhi.n	412a <io_printf+0x10e>
    40f4:	2972      	cmp	r1, #114	; 0x72
    40f6:	d100      	bne.n	40fa <io_printf+0xde>
    40f8:	e09c      	b.n	4234 <io_printf+0x218>
    40fa:	2973      	cmp	r1, #115	; 0x73
    40fc:	d1a3      	bne.n	4046 <io_printf+0x2a>
    40fe:	9b05      	ldr	r3, [sp, #20]
    4100:	681d      	ldr	r5, [r3, #0]
    4102:	1d1a      	adds	r2, r3, #4
    4104:	002b      	movs	r3, r5
    4106:	9205      	str	r2, [sp, #20]
    4108:	1b5e      	subs	r6, r3, r5
    410a:	3301      	adds	r3, #1
    410c:	1e5a      	subs	r2, r3, #1
    410e:	7812      	ldrb	r2, [r2, #0]
    4110:	2a00      	cmp	r2, #0
    4112:	d1f9      	bne.n	4108 <io_printf+0xec>
    4114:	42b7      	cmp	r7, r6
    4116:	dc2b      	bgt.n	4170 <io_printf+0x154>
    4118:	7829      	ldrb	r1, [r5, #0]
    411a:	2900      	cmp	r1, #0
    411c:	d100      	bne.n	4120 <io_printf+0x104>
    411e:	e78a      	b.n	4036 <io_printf+0x1a>
    4120:	0020      	movs	r0, r4
    4122:	3501      	adds	r5, #1
    4124:	f7ff fea6 	bl	3e74 <io_put_char>
    4128:	e7f6      	b.n	4118 <io_printf+0xfc>
    412a:	2978      	cmp	r1, #120	; 0x78
    412c:	d100      	bne.n	4130 <io_printf+0x114>
    412e:	e08f      	b.n	4250 <io_printf+0x234>
    4130:	297a      	cmp	r1, #122	; 0x7a
    4132:	d000      	beq.n	4136 <io_printf+0x11a>
    4134:	e787      	b.n	4046 <io_printf+0x2a>
    4136:	9b05      	ldr	r3, [sp, #20]
    4138:	1e7e      	subs	r6, r7, #1
    413a:	1d1a      	adds	r2, r3, #4
    413c:	681b      	ldr	r3, [r3, #0]
    413e:	9303      	str	r3, [sp, #12]
    4140:	4b58      	ldr	r3, [pc, #352]	; (42a4 <io_printf+0x288>)
    4142:	9205      	str	r2, [sp, #20]
    4144:	18fd      	adds	r5, r7, r3
    4146:	00ad      	lsls	r5, r5, #2
    4148:	270f      	movs	r7, #15
    414a:	2e00      	cmp	r6, #0
    414c:	da00      	bge.n	4150 <io_printf+0x134>
    414e:	e772      	b.n	4036 <io_printf+0x1a>
    4150:	9b03      	ldr	r3, [sp, #12]
    4152:	4a55      	ldr	r2, [pc, #340]	; (42a8 <io_printf+0x28c>)
    4154:	40eb      	lsrs	r3, r5
    4156:	403b      	ands	r3, r7
    4158:	5cd1      	ldrb	r1, [r2, r3]
    415a:	0020      	movs	r0, r4
    415c:	f7ff fe8a 	bl	3e74 <io_put_char>
    4160:	3e01      	subs	r6, #1
    4162:	3d04      	subs	r5, #4
    4164:	e7f1      	b.n	414a <io_printf+0x12e>
    4166:	9b05      	ldr	r3, [sp, #20]
    4168:	1d1a      	adds	r2, r3, #4
    416a:	9205      	str	r2, [sp, #20]
    416c:	6819      	ldr	r1, [r3, #0]
    416e:	e76a      	b.n	4046 <io_printf+0x2a>
    4170:	2120      	movs	r1, #32
    4172:	0020      	movs	r0, r4
    4174:	f7ff fe7e 	bl	3e74 <io_put_char>
    4178:	3f01      	subs	r7, #1
    417a:	e7cb      	b.n	4114 <io_printf+0xf8>
    417c:	9b05      	ldr	r3, [sp, #20]
    417e:	6819      	ldr	r1, [r3, #0]
    4180:	1d1a      	adds	r2, r3, #4
    4182:	2300      	movs	r3, #0
    4184:	9205      	str	r2, [sp, #20]
    4186:	9303      	str	r3, [sp, #12]
    4188:	4299      	cmp	r1, r3
    418a:	da02      	bge.n	4192 <io_printf+0x176>
    418c:	332d      	adds	r3, #45	; 0x2d
    418e:	4249      	negs	r1, r1
    4190:	9303      	str	r3, [sp, #12]
    4192:	2500      	movs	r5, #0
    4194:	a806      	add	r0, sp, #24
    4196:	f7fc e89c 	blx	2d0 <sark_div10>
    419a:	9b07      	ldr	r3, [sp, #28]
    419c:	3501      	adds	r5, #1
    419e:	9906      	ldr	r1, [sp, #24]
    41a0:	ae08      	add	r6, sp, #32
    41a2:	1e6a      	subs	r2, r5, #1
    41a4:	3330      	adds	r3, #48	; 0x30
    41a6:	54b3      	strb	r3, [r6, r2]
    41a8:	2900      	cmp	r1, #0
    41aa:	d1f3      	bne.n	4194 <io_printf+0x178>
    41ac:	3d01      	subs	r5, #1
    41ae:	5d73      	ldrb	r3, [r6, r5]
    41b0:	2b30      	cmp	r3, #48	; 0x30
    41b2:	d101      	bne.n	41b8 <io_printf+0x19c>
    41b4:	2d00      	cmp	r5, #0
    41b6:	d1f9      	bne.n	41ac <io_printf+0x190>
    41b8:	9b03      	ldr	r3, [sp, #12]
    41ba:	2b00      	cmp	r3, #0
    41bc:	d003      	beq.n	41c6 <io_printf+0x1aa>
    41be:	466b      	mov	r3, sp
    41c0:	3501      	adds	r5, #1
    41c2:	7b1b      	ldrb	r3, [r3, #12]
    41c4:	5573      	strb	r3, [r6, r5]
    41c6:	1c6b      	adds	r3, r5, #1
    41c8:	429f      	cmp	r7, r3
    41ca:	d806      	bhi.n	41da <io_printf+0x1be>
    41cc:	5d71      	ldrb	r1, [r6, r5]
    41ce:	0020      	movs	r0, r4
    41d0:	f7ff fe50 	bl	3e74 <io_put_char>
    41d4:	3d01      	subs	r5, #1
    41d6:	d2f9      	bcs.n	41cc <io_printf+0x1b0>
    41d8:	e72d      	b.n	4036 <io_printf+0x1a>
    41da:	2120      	movs	r1, #32
    41dc:	0020      	movs	r0, r4
    41de:	f7ff fe49 	bl	3e74 <io_put_char>
    41e2:	3f01      	subs	r7, #1
    41e4:	e7ef      	b.n	41c6 <io_printf+0x1aa>
    41e6:	9b05      	ldr	r3, [sp, #20]
    41e8:	2500      	movs	r5, #0
    41ea:	6819      	ldr	r1, [r3, #0]
    41ec:	1d1a      	adds	r2, r3, #4
    41ee:	9205      	str	r2, [sp, #20]
    41f0:	a806      	add	r0, sp, #24
    41f2:	f7fc e86e 	blx	2d0 <sark_div10>
    41f6:	9b07      	ldr	r3, [sp, #28]
    41f8:	3501      	adds	r5, #1
    41fa:	9906      	ldr	r1, [sp, #24]
    41fc:	ae08      	add	r6, sp, #32
    41fe:	1e6a      	subs	r2, r5, #1
    4200:	3330      	adds	r3, #48	; 0x30
    4202:	54b3      	strb	r3, [r6, r2]
    4204:	2900      	cmp	r1, #0
    4206:	d1f3      	bne.n	41f0 <io_printf+0x1d4>
    4208:	3d01      	subs	r5, #1
    420a:	5d73      	ldrb	r3, [r6, r5]
    420c:	2b30      	cmp	r3, #48	; 0x30
    420e:	d101      	bne.n	4214 <io_printf+0x1f8>
    4210:	2d00      	cmp	r5, #0
    4212:	d1f9      	bne.n	4208 <io_printf+0x1ec>
    4214:	1c6b      	adds	r3, r5, #1
    4216:	42bb      	cmp	r3, r7
    4218:	d306      	bcc.n	4228 <io_printf+0x20c>
    421a:	5d71      	ldrb	r1, [r6, r5]
    421c:	0020      	movs	r0, r4
    421e:	f7ff fe29 	bl	3e74 <io_put_char>
    4222:	3d01      	subs	r5, #1
    4224:	d2f9      	bcs.n	421a <io_printf+0x1fe>
    4226:	e706      	b.n	4036 <io_printf+0x1a>
    4228:	9903      	ldr	r1, [sp, #12]
    422a:	0020      	movs	r0, r4
    422c:	f7ff fe22 	bl	3e74 <io_put_char>
    4230:	3f01      	subs	r7, #1
    4232:	e7ef      	b.n	4214 <io_printf+0x1f8>
    4234:	9a05      	ldr	r2, [sp, #20]
    4236:	1d11      	adds	r1, r2, #4
    4238:	6812      	ldr	r2, [r2, #0]
    423a:	9105      	str	r1, [sp, #20]
    423c:	17d0      	asrs	r0, r2, #31
    423e:	1811      	adds	r1, r2, r0
    4240:	0fd2      	lsrs	r2, r2, #31
    4242:	4041      	eors	r1, r0
    4244:	9201      	str	r2, [sp, #4]
    4246:	9a03      	ldr	r2, [sp, #12]
    4248:	9200      	str	r2, [sp, #0]
    424a:	0049      	lsls	r1, r1, #1
    424c:	003a      	movs	r2, r7
    424e:	e72f      	b.n	40b0 <io_printf+0x94>
    4250:	9b05      	ldr	r3, [sp, #20]
    4252:	4815      	ldr	r0, [pc, #84]	; (42a8 <io_printf+0x28c>)
    4254:	1d1a      	adds	r2, r3, #4
    4256:	9205      	str	r2, [sp, #20]
    4258:	681b      	ldr	r3, [r3, #0]
    425a:	220f      	movs	r2, #15
    425c:	2500      	movs	r5, #0
    425e:	ae08      	add	r6, sp, #32
    4260:	4694      	mov	ip, r2
    4262:	4661      	mov	r1, ip
    4264:	4019      	ands	r1, r3
    4266:	3501      	adds	r5, #1
    4268:	1e6a      	subs	r2, r5, #1
    426a:	5c41      	ldrb	r1, [r0, r1]
    426c:	54b1      	strb	r1, [r6, r2]
    426e:	091b      	lsrs	r3, r3, #4
    4270:	d1f7      	bne.n	4262 <io_printf+0x246>
    4272:	3d01      	subs	r5, #1
    4274:	5d73      	ldrb	r3, [r6, r5]
    4276:	2b30      	cmp	r3, #48	; 0x30
    4278:	d101      	bne.n	427e <io_printf+0x262>
    427a:	2d00      	cmp	r5, #0
    427c:	d1f9      	bne.n	4272 <io_printf+0x256>
    427e:	1c6b      	adds	r3, r5, #1
    4280:	42bb      	cmp	r3, r7
    4282:	d306      	bcc.n	4292 <io_printf+0x276>
    4284:	5d71      	ldrb	r1, [r6, r5]
    4286:	0020      	movs	r0, r4
    4288:	f7ff fdf4 	bl	3e74 <io_put_char>
    428c:	3d01      	subs	r5, #1
    428e:	d2f9      	bcs.n	4284 <io_printf+0x268>
    4290:	e6d1      	b.n	4036 <io_printf+0x1a>
    4292:	9903      	ldr	r1, [sp, #12]
    4294:	0020      	movs	r0, r4
    4296:	f7ff fded 	bl	3e74 <io_put_char>
    429a:	3f01      	subs	r7, #1
    429c:	e7ef      	b.n	427e <io_printf+0x262>
    429e:	46c0      	nop			; (mov r8, r8)
    42a0:	004042bc 	.word	0x004042bc
    42a4:	3fffffff 	.word	0x3fffffff
    42a8:	00006c0d 	.word	0x00006c0d

000042ac <spin1_msg_free>:
    42ac:	b510      	push	{r4, lr}
    42ae:	f7ff f97d 	bl	35ac <sark_msg_free>
    42b2:	bd10      	pop	{r4, pc}

000042b4 <spin1_send_sdp_msg>:
    42b4:	b510      	push	{r4, lr}
    42b6:	f7ff fa61 	bl	377c <sark_msg_send>
    42ba:	bd10      	pop	{r4, pc}

000042bc <configure_dma_controller>:
    42bc:	4b06      	ldr	r3, [pc, #24]	; (42d8 <configure_dma_controller+0x1c>)
    42be:	223f      	movs	r2, #63	; 0x3f
    42c0:	601a      	str	r2, [r3, #0]
    42c2:	3a32      	subs	r2, #50	; 0x32
    42c4:	601a      	str	r2, [r3, #0]
    42c6:	4b05      	ldr	r3, [pc, #20]	; (42dc <configure_dma_controller+0x20>)
    42c8:	22c0      	movs	r2, #192	; 0xc0
    42ca:	0112      	lsls	r2, r2, #4
    42cc:	601a      	str	r2, [r3, #0]
    42ce:	4b04      	ldr	r3, [pc, #16]	; (42e0 <configure_dma_controller+0x24>)
    42d0:	2203      	movs	r2, #3
    42d2:	601a      	str	r2, [r3, #0]
    42d4:	4770      	bx	lr
    42d6:	46c0      	nop			; (mov r8, r8)
    42d8:	40000010 	.word	0x40000010
    42dc:	40000018 	.word	0x40000018
    42e0:	40000028 	.word	0x40000028

000042e4 <configure_timer1>:
    42e4:	4b08      	ldr	r3, [pc, #32]	; (4308 <configure_timer1+0x24>)
    42e6:	2200      	movs	r2, #0
    42e8:	601a      	str	r2, [r3, #0]
    42ea:	4b08      	ldr	r3, [pc, #32]	; (430c <configure_timer1+0x28>)
    42ec:	3201      	adds	r2, #1
    42ee:	601a      	str	r2, [r3, #0]
    42f0:	4b07      	ldr	r3, [pc, #28]	; (4310 <configure_timer1+0x2c>)
    42f2:	1841      	adds	r1, r0, r1
    42f4:	8c9b      	ldrh	r3, [r3, #36]	; 0x24
    42f6:	2284      	movs	r2, #132	; 0x84
    42f8:	4359      	muls	r1, r3
    42fa:	4358      	muls	r0, r3
    42fc:	4b05      	ldr	r3, [pc, #20]	; (4314 <configure_timer1+0x30>)
    42fe:	0592      	lsls	r2, r2, #22
    4300:	6011      	str	r1, [r2, #0]
    4302:	6018      	str	r0, [r3, #0]
    4304:	4770      	bx	lr
    4306:	46c0      	nop			; (mov r8, r8)
    4308:	21000008 	.word	0x21000008
    430c:	2100000c 	.word	0x2100000c
    4310:	e5007f00 	.word	0xe5007f00
    4314:	21000018 	.word	0x21000018

00004318 <configure_vic>:
    4318:	4b36      	ldr	r3, [pc, #216]	; (43f4 <configure_vic+0xdc>)
    431a:	4a37      	ldr	r2, [pc, #220]	; (43f8 <configure_vic+0xe0>)
    431c:	b530      	push	{r4, r5, lr}
    431e:	601a      	str	r2, [r3, #0]
    4320:	4a36      	ldr	r2, [pc, #216]	; (43fc <configure_vic+0xe4>)
    4322:	2320      	movs	r3, #32
    4324:	69d9      	ldr	r1, [r3, #28]
    4326:	6011      	str	r1, [r2, #0]
    4328:	4935      	ldr	r1, [pc, #212]	; (4400 <configure_vic+0xe8>)
    432a:	4a36      	ldr	r2, [pc, #216]	; (4404 <configure_vic+0xec>)
    432c:	0004      	movs	r4, r0
    432e:	6808      	ldr	r0, [r1, #0]
    4330:	6010      	str	r0, [r2, #0]
    4332:	4a35      	ldr	r2, [pc, #212]	; (4408 <configure_vic+0xf0>)
    4334:	4835      	ldr	r0, [pc, #212]	; (440c <configure_vic+0xf4>)
    4336:	6815      	ldr	r5, [r2, #0]
    4338:	6005      	str	r5, [r0, #0]
    433a:	4835      	ldr	r0, [pc, #212]	; (4410 <configure_vic+0xf8>)
    433c:	6800      	ldr	r0, [r0, #0]
    433e:	2807      	cmp	r0, #7
    4340:	d854      	bhi.n	43ec <configure_vic+0xd4>
    4342:	f7fc f80f 	bl	364 <__gnu_thumb1_case_uqi>
    4346:	4604      	.short	0x4604
    4348:	044f534b 	.word	0x044f534b
    434c:	4141      	.short	0x4141
    434e:	4831      	ldr	r0, [pc, #196]	; (4414 <configure_vic+0xfc>)
    4350:	61d8      	str	r0, [r3, #28]
    4352:	2080      	movs	r0, #128	; 0x80
    4354:	0440      	lsls	r0, r0, #17
    4356:	2359      	movs	r3, #89	; 0x59
    4358:	781b      	ldrb	r3, [r3, #0]
    435a:	4d2f      	ldr	r5, [pc, #188]	; (4418 <configure_vic+0x100>)
    435c:	009b      	lsls	r3, r3, #2
    435e:	195b      	adds	r3, r3, r5
    4360:	2500      	movs	r5, #0
    4362:	601d      	str	r5, [r3, #0]
    4364:	4b2d      	ldr	r3, [pc, #180]	; (441c <configure_vic+0x104>)
    4366:	4d2e      	ldr	r5, [pc, #184]	; (4420 <configure_vic+0x108>)
    4368:	601d      	str	r5, [r3, #0]
    436a:	4b2b      	ldr	r3, [pc, #172]	; (4418 <configure_vic+0x100>)
    436c:	2532      	movs	r5, #50	; 0x32
    436e:	601d      	str	r5, [r3, #0]
    4370:	4b2c      	ldr	r3, [pc, #176]	; (4424 <configure_vic+0x10c>)
    4372:	4d2d      	ldr	r5, [pc, #180]	; (4428 <configure_vic+0x110>)
    4374:	601d      	str	r5, [r3, #0]
    4376:	4b2d      	ldr	r3, [pc, #180]	; (442c <configure_vic+0x114>)
    4378:	2538      	movs	r5, #56	; 0x38
    437a:	601d      	str	r5, [r3, #0]
    437c:	4b2c      	ldr	r3, [pc, #176]	; (4430 <configure_vic+0x118>)
    437e:	4d2d      	ldr	r5, [pc, #180]	; (4434 <configure_vic+0x11c>)
    4380:	601d      	str	r5, [r3, #0]
    4382:	4b2d      	ldr	r3, [pc, #180]	; (4438 <configure_vic+0x120>)
    4384:	253b      	movs	r5, #59	; 0x3b
    4386:	601d      	str	r5, [r3, #0]
    4388:	4b2c      	ldr	r3, [pc, #176]	; (443c <configure_vic+0x124>)
    438a:	4d2d      	ldr	r5, [pc, #180]	; (4440 <configure_vic+0x128>)
    438c:	601d      	str	r5, [r3, #0]
    438e:	4b2d      	ldr	r3, [pc, #180]	; (4444 <configure_vic+0x12c>)
    4390:	252c      	movs	r5, #44	; 0x2c
    4392:	601d      	str	r5, [r3, #0]
    4394:	4b2c      	ldr	r3, [pc, #176]	; (4448 <configure_vic+0x130>)
    4396:	4d2d      	ldr	r5, [pc, #180]	; (444c <configure_vic+0x134>)
    4398:	601d      	str	r5, [r3, #0]
    439a:	4b2d      	ldr	r3, [pc, #180]	; (4450 <configure_vic+0x138>)
    439c:	2524      	movs	r5, #36	; 0x24
    439e:	601d      	str	r5, [r3, #0]
    43a0:	4b2c      	ldr	r3, [pc, #176]	; (4454 <configure_vic+0x13c>)
    43a2:	4d2d      	ldr	r5, [pc, #180]	; (4458 <configure_vic+0x140>)
    43a4:	601d      	str	r5, [r3, #0]
    43a6:	4b2d      	ldr	r3, [pc, #180]	; (445c <configure_vic+0x144>)
    43a8:	252b      	movs	r5, #43	; 0x2b
    43aa:	601d      	str	r5, [r3, #0]
    43ac:	4b2c      	ldr	r3, [pc, #176]	; (4460 <configure_vic+0x148>)
    43ae:	4d2d      	ldr	r5, [pc, #180]	; (4464 <configure_vic+0x14c>)
    43b0:	601d      	str	r5, [r3, #0]
    43b2:	4b2d      	ldr	r3, [pc, #180]	; (4468 <configure_vic+0x150>)
    43b4:	2521      	movs	r5, #33	; 0x21
    43b6:	601d      	str	r5, [r3, #0]
    43b8:	6008      	str	r0, [r1, #0]
    43ba:	2c00      	cmp	r4, #0
    43bc:	d118      	bne.n	43f0 <configure_vic+0xd8>
    43be:	4b2b      	ldr	r3, [pc, #172]	; (446c <configure_vic+0x154>)
    43c0:	492b      	ldr	r1, [pc, #172]	; (4470 <configure_vic+0x158>)
    43c2:	400b      	ands	r3, r1
    43c4:	6013      	str	r3, [r2, #0]
    43c6:	bd30      	pop	{r4, r5, pc}
    43c8:	482a      	ldr	r0, [pc, #168]	; (4474 <configure_vic+0x15c>)
    43ca:	61d8      	str	r0, [r3, #28]
    43cc:	2080      	movs	r0, #128	; 0x80
    43ce:	0500      	lsls	r0, r0, #20
    43d0:	e7c1      	b.n	4356 <configure_vic+0x3e>
    43d2:	4829      	ldr	r0, [pc, #164]	; (4478 <configure_vic+0x160>)
    43d4:	61d8      	str	r0, [r3, #28]
    43d6:	2080      	movs	r0, #128	; 0x80
    43d8:	0140      	lsls	r0, r0, #5
    43da:	e7bc      	b.n	4356 <configure_vic+0x3e>
    43dc:	4827      	ldr	r0, [pc, #156]	; (447c <configure_vic+0x164>)
    43de:	61d8      	str	r0, [r3, #28]
    43e0:	2010      	movs	r0, #16
    43e2:	e7b8      	b.n	4356 <configure_vic+0x3e>
    43e4:	4826      	ldr	r0, [pc, #152]	; (4480 <configure_vic+0x168>)
    43e6:	61d8      	str	r0, [r3, #28]
    43e8:	2002      	movs	r0, #2
    43ea:	e7b4      	b.n	4356 <configure_vic+0x3e>
    43ec:	2000      	movs	r0, #0
    43ee:	e7b2      	b.n	4356 <configure_vic+0x3e>
    43f0:	4b01      	ldr	r3, [pc, #4]	; (43f8 <configure_vic+0xe0>)
    43f2:	e7e5      	b.n	43c0 <configure_vic+0xa8>
    43f4:	1f000014 	.word	0x1f000014
    43f8:	09003012 	.word	0x09003012
    43fc:	004046dc 	.word	0x004046dc
    4400:	1f00000c 	.word	0x1f00000c
    4404:	0040487c 	.word	0x0040487c
    4408:	1f000010 	.word	0x1f000010
    440c:	00404728 	.word	0x00404728
    4410:	00400000 	.word	0x00400000
    4414:	00004c90 	.word	0x00004c90
    4418:	2f000200 	.word	0x2f000200
    441c:	2f000100 	.word	0x2f000100
    4420:	00000300 	.word	0x00000300
    4424:	2f00010c 	.word	0x2f00010c
    4428:	00004c1c 	.word	0x00004c1c
    442c:	2f00020c 	.word	0x2f00020c
    4430:	2f000110 	.word	0x2f000110
    4434:	00004cc8 	.word	0x00004cc8
    4438:	2f000210 	.word	0x2f000210
    443c:	2f000108 	.word	0x2f000108
    4440:	00004e00 	.word	0x00004e00
    4444:	2f000208 	.word	0x2f000208
    4448:	2f000104 	.word	0x2f000104
    444c:	00004f08 	.word	0x00004f08
    4450:	2f000204 	.word	0x2f000204
    4454:	2f000114 	.word	0x2f000114
    4458:	00004d74 	.word	0x00004d74
    445c:	2f000214 	.word	0x2f000214
    4460:	2f000118 	.word	0x2f000118
    4464:	00004fd0 	.word	0x00004fd0
    4468:	2f000218 	.word	0x2f000218
    446c:	09003002 	.word	0x09003002
    4470:	ffffdfff 	.word	0xffffdfff
    4474:	00004d3c 	.word	0x00004d3c
    4478:	00004e90 	.word	0x00004e90
    447c:	00004f90 	.word	0x00004f90
    4480:	00005038 	.word	0x00005038

00004484 <spin1_pause>:
    4484:	4b08      	ldr	r3, [pc, #32]	; (44a8 <spin1_pause+0x24>)
    4486:	2210      	movs	r2, #16
    4488:	b510      	push	{r4, lr}
    448a:	601a      	str	r2, [r3, #0]
    448c:	4b07      	ldr	r3, [pc, #28]	; (44ac <spin1_pause+0x28>)
    448e:	6819      	ldr	r1, [r3, #0]
    4490:	4b07      	ldr	r3, [pc, #28]	; (44b0 <spin1_pause+0x2c>)
    4492:	6818      	ldr	r0, [r3, #0]
    4494:	f7ff ff26 	bl	42e4 <configure_timer1>
    4498:	200a      	movs	r0, #10
    449a:	f7ff f84d 	bl	3538 <sark_cpu_state>
    449e:	4b05      	ldr	r3, [pc, #20]	; (44b4 <spin1_pause+0x30>)
    44a0:	2201      	movs	r2, #1
    44a2:	601a      	str	r2, [r3, #0]
    44a4:	bd10      	pop	{r4, pc}
    44a6:	46c0      	nop			; (mov r8, r8)
    44a8:	1f000014 	.word	0x1f000014
    44ac:	004045ec 	.word	0x004045ec
    44b0:	004045f0 	.word	0x004045f0
    44b4:	004042c0 	.word	0x004042c0

000044b8 <resume>:
    44b8:	4a0b      	ldr	r2, [pc, #44]	; (44e8 <resume+0x30>)
    44ba:	b510      	push	{r4, lr}
    44bc:	6813      	ldr	r3, [r2, #0]
    44be:	2b01      	cmp	r3, #1
    44c0:	d105      	bne.n	44ce <resume+0x16>
    44c2:	2100      	movs	r1, #0
    44c4:	6011      	str	r1, [r2, #0]
    44c6:	4a09      	ldr	r2, [pc, #36]	; (44ec <resume+0x34>)
    44c8:	7e91      	ldrb	r1, [r2, #26]
    44ca:	404b      	eors	r3, r1
    44cc:	7693      	strb	r3, [r2, #26]
    44ce:	4b08      	ldr	r3, [pc, #32]	; (44f0 <resume+0x38>)
    44d0:	2200      	movs	r2, #0
    44d2:	2007      	movs	r0, #7
    44d4:	601a      	str	r2, [r3, #0]
    44d6:	f7ff f82f 	bl	3538 <sark_cpu_state>
    44da:	4b06      	ldr	r3, [pc, #24]	; (44f4 <resume+0x3c>)
    44dc:	2210      	movs	r2, #16
    44de:	601a      	str	r2, [r3, #0]
    44e0:	4b05      	ldr	r3, [pc, #20]	; (44f8 <resume+0x40>)
    44e2:	32d2      	adds	r2, #210	; 0xd2
    44e4:	601a      	str	r2, [r3, #0]
    44e6:	bd10      	pop	{r4, pc}
    44e8:	004042c4 	.word	0x004042c4
    44ec:	00404644 	.word	0x00404644
    44f0:	004042c0 	.word	0x004042c0
    44f4:	1f000010 	.word	0x1f000010
    44f8:	21000008 	.word	0x21000008

000044fc <spin1_resume>:
    44fc:	b510      	push	{r4, lr}
    44fe:	2800      	cmp	r0, #0
    4500:	d102      	bne.n	4508 <spin1_resume+0xc>
    4502:	f7ff ffd9 	bl	44b8 <resume>
    4506:	bd10      	pop	{r4, pc}
    4508:	4b05      	ldr	r3, [pc, #20]	; (4520 <spin1_resume+0x24>)
    450a:	2201      	movs	r2, #1
    450c:	601a      	str	r2, [r3, #0]
    450e:	4b05      	ldr	r3, [pc, #20]	; (4524 <spin1_resume+0x28>)
    4510:	2009      	movs	r0, #9
    4512:	7e9b      	ldrb	r3, [r3, #26]
    4514:	2b00      	cmp	r3, #0
    4516:	d100      	bne.n	451a <spin1_resume+0x1e>
    4518:	2008      	movs	r0, #8
    451a:	f7ff f80d 	bl	3538 <sark_cpu_state>
    451e:	e7f2      	b.n	4506 <spin1_resume+0xa>
    4520:	004042c4 	.word	0x004042c4
    4524:	00404644 	.word	0x00404644

00004528 <resume_wait>:
    4528:	4b06      	ldr	r3, [pc, #24]	; (4544 <resume_wait+0x1c>)
    452a:	2001      	movs	r0, #1
    452c:	681b      	ldr	r3, [r3, #0]
    452e:	4098      	lsls	r0, r3
    4530:	4b05      	ldr	r3, [pc, #20]	; (4548 <resume_wait+0x20>)
    4532:	7e9a      	ldrb	r2, [r3, #26]
    4534:	4b05      	ldr	r3, [pc, #20]	; (454c <resume_wait+0x24>)
    4536:	681b      	ldr	r3, [r3, #0]
    4538:	2a00      	cmp	r2, #0
    453a:	d001      	beq.n	4540 <resume_wait+0x18>
    453c:	4398      	bics	r0, r3
    453e:	4770      	bx	lr
    4540:	4018      	ands	r0, r3
    4542:	e7fc      	b.n	453e <resume_wait+0x16>
    4544:	00404608 	.word	0x00404608
    4548:	00404644 	.word	0x00404644
    454c:	e2000058 	.word	0xe2000058

00004550 <dispatch>:
    4550:	b5f7      	push	{r0, r1, r2, r4, r5, r6, r7, lr}
    4552:	4a33      	ldr	r2, [pc, #204]	; (4620 <dispatch+0xd0>)
    4554:	2300      	movs	r3, #0
    4556:	6013      	str	r3, [r2, #0]
    4558:	4b32      	ldr	r3, [pc, #200]	; (4624 <dispatch+0xd4>)
    455a:	681b      	ldr	r3, [r3, #0]
    455c:	2b00      	cmp	r3, #0
    455e:	d100      	bne.n	4562 <dispatch+0x12>
    4560:	bdf7      	pop	{r0, r1, r2, r4, r5, r6, r7, pc}
    4562:	f7fb ee32 	blx	1c8 <cpu_int_disable>
    4566:	2300      	movs	r3, #0
    4568:	0004      	movs	r4, r0
    456a:	4a2e      	ldr	r2, [pc, #184]	; (4624 <dispatch+0xd4>)
    456c:	6811      	ldr	r1, [r2, #0]
    456e:	2900      	cmp	r1, #0
    4570:	d112      	bne.n	4598 <dispatch+0x48>
    4572:	6813      	ldr	r3, [r2, #0]
    4574:	2b00      	cmp	r3, #0
    4576:	d0ef      	beq.n	4558 <dispatch+0x8>
    4578:	f7fb ee32 	blx	1e0 <cpu_wfi>
    457c:	4b28      	ldr	r3, [pc, #160]	; (4620 <dispatch+0xd0>)
    457e:	681b      	ldr	r3, [r3, #0]
    4580:	2b01      	cmp	r3, #1
    4582:	d105      	bne.n	4590 <dispatch+0x40>
    4584:	f7ff ffd0 	bl	4528 <resume_wait>
    4588:	2800      	cmp	r0, #0
    458a:	d101      	bne.n	4590 <dispatch+0x40>
    458c:	f7ff ff94 	bl	44b8 <resume>
    4590:	0020      	movs	r0, r4
    4592:	f7fb ee22 	blx	1d8 <cpu_int_restore>
    4596:	e7df      	b.n	4558 <dispatch+0x8>
    4598:	2b03      	cmp	r3, #3
    459a:	d8ea      	bhi.n	4572 <dispatch+0x22>
    459c:	22c8      	movs	r2, #200	; 0xc8
    459e:	435a      	muls	r2, r3
    45a0:	4921      	ldr	r1, [pc, #132]	; (4628 <dispatch+0xd8>)
    45a2:	1c58      	adds	r0, r3, #1
    45a4:	0013      	movs	r3, r2
    45a6:	18ce      	adds	r6, r1, r3
    45a8:	5852      	ldr	r2, [r2, r1]
    45aa:	6876      	ldr	r6, [r6, #4]
    45ac:	42b2      	cmp	r2, r6
    45ae:	d035      	beq.n	461c <dispatch+0xcc>
    45b0:	270c      	movs	r7, #12
    45b2:	4357      	muls	r7, r2
    45b4:	18ff      	adds	r7, r7, r3
    45b6:	19cf      	adds	r7, r1, r7
    45b8:	3201      	adds	r2, #1
    45ba:	68be      	ldr	r6, [r7, #8]
    45bc:	0015      	movs	r5, r2
    45be:	220f      	movs	r2, #15
    45c0:	9601      	str	r6, [sp, #4]
    45c2:	4015      	ands	r5, r2
    45c4:	505d      	str	r5, [r3, r1]
    45c6:	9b01      	ldr	r3, [sp, #4]
    45c8:	68fe      	ldr	r6, [r7, #12]
    45ca:	693f      	ldr	r7, [r7, #16]
    45cc:	2b00      	cmp	r3, #0
    45ce:	d025      	beq.n	461c <dispatch+0xcc>
    45d0:	0020      	movs	r0, r4
    45d2:	f7fb ee02 	blx	1d8 <cpu_int_restore>
    45d6:	4c15      	ldr	r4, [pc, #84]	; (462c <dispatch+0xdc>)
    45d8:	9a01      	ldr	r2, [sp, #4]
    45da:	6923      	ldr	r3, [r4, #16]
    45dc:	4293      	cmp	r3, r2
    45de:	d102      	bne.n	45e6 <dispatch+0x96>
    45e0:	4a13      	ldr	r2, [pc, #76]	; (4630 <dispatch+0xe0>)
    45e2:	2101      	movs	r1, #1
    45e4:	6391      	str	r1, [r2, #56]	; 0x38
    45e6:	9a01      	ldr	r2, [sp, #4]
    45e8:	4293      	cmp	r3, r2
    45ea:	d103      	bne.n	45f4 <dispatch+0xa4>
    45ec:	4b11      	ldr	r3, [pc, #68]	; (4634 <dispatch+0xe4>)
    45ee:	681b      	ldr	r3, [r3, #0]
    45f0:	2b00      	cmp	r3, #0
    45f2:	d103      	bne.n	45fc <dispatch+0xac>
    45f4:	9b01      	ldr	r3, [sp, #4]
    45f6:	0039      	movs	r1, r7
    45f8:	0030      	movs	r0, r6
    45fa:	4798      	blx	r3
    45fc:	9b01      	ldr	r3, [sp, #4]
    45fe:	6922      	ldr	r2, [r4, #16]
    4600:	429a      	cmp	r2, r3
    4602:	d107      	bne.n	4614 <dispatch+0xc4>
    4604:	4a0a      	ldr	r2, [pc, #40]	; (4630 <dispatch+0xe0>)
    4606:	6bd3      	ldr	r3, [r2, #60]	; 0x3c
    4608:	2b00      	cmp	r3, #0
    460a:	d001      	beq.n	4610 <dispatch+0xc0>
    460c:	3b01      	subs	r3, #1
    460e:	63d3      	str	r3, [r2, #60]	; 0x3c
    4610:	2300      	movs	r3, #0
    4612:	6393      	str	r3, [r2, #56]	; 0x38
    4614:	f7fb edd8 	blx	1c8 <cpu_int_disable>
    4618:	0004      	movs	r4, r0
    461a:	2000      	movs	r0, #0
    461c:	0003      	movs	r3, r0
    461e:	e7a4      	b.n	456a <dispatch+0x1a>
    4620:	004042c4 	.word	0x004042c4
    4624:	004042c8 	.word	0x004042c8
    4628:	004042cc 	.word	0x004042cc
    462c:	00404888 	.word	0x00404888
    4630:	004046e0 	.word	0x004046e0
    4634:	004042c0 	.word	0x004042c0

00004638 <spin1_callback_on>:
    4638:	4b1d      	ldr	r3, [pc, #116]	; (46b0 <spin1_callback_on+0x78>)
    463a:	b570      	push	{r4, r5, r6, lr}
    463c:	0015      	movs	r5, r2
    463e:	00c2      	lsls	r2, r0, #3
    4640:	50d1      	str	r1, [r2, r3]
    4642:	189b      	adds	r3, r3, r2
    4644:	0004      	movs	r4, r0
    4646:	605d      	str	r5, [r3, #4]
    4648:	2d00      	cmp	r5, #0
    464a:	da08      	bge.n	465e <spin1_callback_on+0x26>
    464c:	4a19      	ldr	r2, [pc, #100]	; (46b4 <spin1_callback_on+0x7c>)
    464e:	6813      	ldr	r3, [r2, #0]
    4650:	1c59      	adds	r1, r3, #1
    4652:	d003      	beq.n	465c <spin1_callback_on+0x24>
    4654:	2800      	cmp	r0, #0
    4656:	d10c      	bne.n	4672 <spin1_callback_on+0x3a>
    4658:	2b05      	cmp	r3, #5
    465a:	d10e      	bne.n	467a <spin1_callback_on+0x42>
    465c:	6014      	str	r4, [r2, #0]
    465e:	2c00      	cmp	r4, #0
    4660:	d001      	beq.n	4666 <spin1_callback_on+0x2e>
    4662:	2c05      	cmp	r4, #5
    4664:	d11f      	bne.n	46a6 <spin1_callback_on+0x6e>
    4666:	4a14      	ldr	r2, [pc, #80]	; (46b8 <spin1_callback_on+0x80>)
    4668:	6813      	ldr	r3, [r2, #0]
    466a:	1c99      	adds	r1, r3, #2
    466c:	d113      	bne.n	4696 <spin1_callback_on+0x5e>
    466e:	6015      	str	r5, [r2, #0]
    4670:	e018      	b.n	46a4 <spin1_callback_on+0x6c>
    4672:	2805      	cmp	r0, #5
    4674:	d105      	bne.n	4682 <spin1_callback_on+0x4a>
    4676:	2b00      	cmp	r3, #0
    4678:	d0f0      	beq.n	465c <spin1_callback_on+0x24>
    467a:	2013      	movs	r0, #19
    467c:	f7fb ed56 	blx	12c <rt_error>
    4680:	e7ed      	b.n	465e <spin1_callback_on+0x26>
    4682:	2806      	cmp	r0, #6
    4684:	d102      	bne.n	468c <spin1_callback_on+0x54>
    4686:	2b07      	cmp	r3, #7
    4688:	d1f7      	bne.n	467a <spin1_callback_on+0x42>
    468a:	e7e7      	b.n	465c <spin1_callback_on+0x24>
    468c:	2807      	cmp	r0, #7
    468e:	d1f4      	bne.n	467a <spin1_callback_on+0x42>
    4690:	2b06      	cmp	r3, #6
    4692:	d1f2      	bne.n	467a <spin1_callback_on+0x42>
    4694:	e7e2      	b.n	465c <spin1_callback_on+0x24>
    4696:	3301      	adds	r3, #1
    4698:	d104      	bne.n	46a4 <spin1_callback_on+0x6c>
    469a:	1c6b      	adds	r3, r5, #1
    469c:	d002      	beq.n	46a4 <spin1_callback_on+0x6c>
    469e:	2013      	movs	r0, #19
    46a0:	f7fb ed44 	blx	12c <rt_error>
    46a4:	bd70      	pop	{r4, r5, r6, pc}
    46a6:	3c06      	subs	r4, #6
    46a8:	2c01      	cmp	r4, #1
    46aa:	d8fb      	bhi.n	46a4 <spin1_callback_on+0x6c>
    46ac:	4a03      	ldr	r2, [pc, #12]	; (46bc <spin1_callback_on+0x84>)
    46ae:	e7db      	b.n	4668 <spin1_callback_on+0x30>
    46b0:	00404888 	.word	0x00404888
    46b4:	00400000 	.word	0x00400000
    46b8:	00400008 	.word	0x00400008
    46bc:	00400004 	.word	0x00400004

000046c0 <spin1_exit>:
    46c0:	4b04      	ldr	r3, [pc, #16]	; (46d4 <spin1_exit+0x14>)
    46c2:	4a05      	ldr	r2, [pc, #20]	; (46d8 <spin1_exit+0x18>)
    46c4:	601a      	str	r2, [r3, #0]
    46c6:	4b05      	ldr	r3, [pc, #20]	; (46dc <spin1_exit+0x1c>)
    46c8:	2200      	movs	r2, #0
    46ca:	601a      	str	r2, [r3, #0]
    46cc:	4b04      	ldr	r3, [pc, #16]	; (46e0 <spin1_exit+0x20>)
    46ce:	6018      	str	r0, [r3, #0]
    46d0:	4770      	bx	lr
    46d2:	46c0      	nop			; (mov r8, r8)
    46d4:	1f000014 	.word	0x1f000014
    46d8:	09003012 	.word	0x09003012
    46dc:	004042c8 	.word	0x004042c8
    46e0:	004046e0 	.word	0x004046e0

000046e4 <spin1_set_timer_tick_and_phase>:
    46e4:	4b02      	ldr	r3, [pc, #8]	; (46f0 <spin1_set_timer_tick_and_phase+0xc>)
    46e6:	6018      	str	r0, [r3, #0]
    46e8:	4b02      	ldr	r3, [pc, #8]	; (46f4 <spin1_set_timer_tick_and_phase+0x10>)
    46ea:	6019      	str	r1, [r3, #0]
    46ec:	4770      	bx	lr
    46ee:	46c0      	nop			; (mov r8, r8)
    46f0:	004045f0 	.word	0x004045f0
    46f4:	004045ec 	.word	0x004045ec

000046f8 <clean_up>:
    46f8:	b510      	push	{r4, lr}
    46fa:	f7fb ed66 	blx	1c8 <cpu_int_disable>
    46fe:	4b10      	ldr	r3, [pc, #64]	; (4740 <clean_up+0x48>)
    4700:	681a      	ldr	r2, [r3, #0]
    4702:	2320      	movs	r3, #32
    4704:	61da      	str	r2, [r3, #28]
    4706:	4b0f      	ldr	r3, [pc, #60]	; (4744 <clean_up+0x4c>)
    4708:	681a      	ldr	r2, [r3, #0]
    470a:	4b0f      	ldr	r3, [pc, #60]	; (4748 <clean_up+0x50>)
    470c:	601a      	str	r2, [r3, #0]
    470e:	4b0f      	ldr	r3, [pc, #60]	; (474c <clean_up+0x54>)
    4710:	681a      	ldr	r2, [r3, #0]
    4712:	4b0f      	ldr	r3, [pc, #60]	; (4750 <clean_up+0x58>)
    4714:	601a      	str	r2, [r3, #0]
    4716:	2359      	movs	r3, #89	; 0x59
    4718:	781b      	ldrb	r3, [r3, #0]
    471a:	4a0e      	ldr	r2, [pc, #56]	; (4754 <clean_up+0x5c>)
    471c:	009b      	lsls	r3, r3, #2
    471e:	189b      	adds	r3, r3, r2
    4720:	2232      	movs	r2, #50	; 0x32
    4722:	601a      	str	r2, [r3, #0]
    4724:	4b0c      	ldr	r3, [pc, #48]	; (4758 <clean_up+0x60>)
    4726:	3a31      	subs	r2, #49	; 0x31
    4728:	601a      	str	r2, [r3, #0]
    472a:	4b0c      	ldr	r3, [pc, #48]	; (475c <clean_up+0x64>)
    472c:	2200      	movs	r2, #0
    472e:	601a      	str	r2, [r3, #0]
    4730:	4b0b      	ldr	r3, [pc, #44]	; (4760 <clean_up+0x68>)
    4732:	323f      	adds	r2, #63	; 0x3f
    4734:	601a      	str	r2, [r3, #0]
    4736:	3a32      	subs	r2, #50	; 0x32
    4738:	601a      	str	r2, [r3, #0]
    473a:	f7fb ed4e 	blx	1d8 <cpu_int_restore>
    473e:	bd10      	pop	{r4, pc}
    4740:	004046dc 	.word	0x004046dc
    4744:	0040487c 	.word	0x0040487c
    4748:	1f00000c 	.word	0x1f00000c
    474c:	00404728 	.word	0x00404728
    4750:	1f000010 	.word	0x1f000010
    4754:	2f000200 	.word	0x2f000200
    4758:	2100000c 	.word	0x2100000c
    475c:	40000018 	.word	0x40000018
    4760:	40000010 	.word	0x40000010

00004764 <report_debug>:
    4764:	4b12      	ldr	r3, [pc, #72]	; (47b0 <report_debug+0x4c>)
    4766:	b510      	push	{r4, lr}
    4768:	781b      	ldrb	r3, [r3, #0]
    476a:	2b00      	cmp	r3, #0
    476c:	d00e      	beq.n	478c <report_debug+0x28>
    476e:	4b11      	ldr	r3, [pc, #68]	; (47b4 <report_debug+0x50>)
    4770:	4911      	ldr	r1, [pc, #68]	; (47b8 <report_debug+0x54>)
    4772:	681a      	ldr	r2, [r3, #0]
    4774:	4b11      	ldr	r3, [pc, #68]	; (47bc <report_debug+0x58>)
    4776:	2002      	movs	r0, #2
    4778:	681b      	ldr	r3, [r3, #0]
    477a:	18d2      	adds	r2, r2, r3
    477c:	f7ff fc4e 	bl	401c <io_printf>
    4780:	4b0f      	ldr	r3, [pc, #60]	; (47c0 <report_debug+0x5c>)
    4782:	4910      	ldr	r1, [pc, #64]	; (47c4 <report_debug+0x60>)
    4784:	681a      	ldr	r2, [r3, #0]
    4786:	2002      	movs	r0, #2
    4788:	f7ff fc48 	bl	401c <io_printf>
    478c:	4c0e      	ldr	r4, [pc, #56]	; (47c8 <report_debug+0x64>)
    478e:	490f      	ldr	r1, [pc, #60]	; (47cc <report_debug+0x68>)
    4790:	6922      	ldr	r2, [r4, #16]
    4792:	2002      	movs	r0, #2
    4794:	f7ff fc42 	bl	401c <io_printf>
    4798:	6b62      	ldr	r2, [r4, #52]	; 0x34
    479a:	490d      	ldr	r1, [pc, #52]	; (47d0 <report_debug+0x6c>)
    479c:	2002      	movs	r0, #2
    479e:	f7ff fc3d 	bl	401c <io_printf>
    47a2:	4b0c      	ldr	r3, [pc, #48]	; (47d4 <report_debug+0x70>)
    47a4:	490c      	ldr	r1, [pc, #48]	; (47d8 <report_debug+0x74>)
    47a6:	681a      	ldr	r2, [r3, #0]
    47a8:	2002      	movs	r0, #2
    47aa:	f7ff fc37 	bl	401c <io_printf>
    47ae:	bd10      	pop	{r4, pc}
    47b0:	00404730 	.word	0x00404730
    47b4:	e1000300 	.word	0xe1000300
    47b8:	00006c1e 	.word	0x00006c1e
    47bc:	e1000304 	.word	0xe1000304
    47c0:	e1000320 	.word	0xe1000320
    47c4:	00006c44 	.word	0x00006c44
    47c8:	004046e0 	.word	0x004046e0
    47cc:	00006c6a 	.word	0x00006c6a
    47d0:	00006c90 	.word	0x00006c90
    47d4:	40000040 	.word	0x40000040
    47d8:	00006cb9 	.word	0x00006cb9

000047dc <report_warns>:
    47dc:	b510      	push	{r4, lr}
    47de:	4c0d      	ldr	r4, [pc, #52]	; (4814 <report_warns+0x38>)
    47e0:	6863      	ldr	r3, [r4, #4]
    47e2:	07db      	lsls	r3, r3, #31
    47e4:	d504      	bpl.n	47f0 <report_warns+0x14>
    47e6:	6a22      	ldr	r2, [r4, #32]
    47e8:	490b      	ldr	r1, [pc, #44]	; (4818 <report_warns+0x3c>)
    47ea:	2002      	movs	r0, #2
    47ec:	f7ff fc16 	bl	401c <io_printf>
    47f0:	6863      	ldr	r3, [r4, #4]
    47f2:	2002      	movs	r0, #2
    47f4:	4203      	tst	r3, r0
    47f6:	d003      	beq.n	4800 <report_warns+0x24>
    47f8:	69e2      	ldr	r2, [r4, #28]
    47fa:	4908      	ldr	r1, [pc, #32]	; (481c <report_warns+0x40>)
    47fc:	f7ff fc0e 	bl	401c <io_printf>
    4800:	6863      	ldr	r3, [r4, #4]
    4802:	075b      	lsls	r3, r3, #29
    4804:	d504      	bpl.n	4810 <report_warns+0x34>
    4806:	6a62      	ldr	r2, [r4, #36]	; 0x24
    4808:	4905      	ldr	r1, [pc, #20]	; (4820 <report_warns+0x44>)
    480a:	2002      	movs	r0, #2
    480c:	f7ff fc06 	bl	401c <io_printf>
    4810:	bd10      	pop	{r4, pc}
    4812:	46c0      	nop			; (mov r8, r8)
    4814:	004046e0 	.word	0x004046e0
    4818:	00006cd8 	.word	0x00006cd8
    481c:	00006d04 	.word	0x00006d04
    4820:	00006d2f 	.word	0x00006d2f

00004824 <start>:
    4824:	b5f7      	push	{r0, r1, r2, r4, r5, r6, r7, lr}
    4826:	4e2e      	ldr	r6, [pc, #184]	; (48e0 <start+0xbc>)
    4828:	9001      	str	r0, [sp, #4]
    482a:	6031      	str	r1, [r6, #0]
    482c:	6833      	ldr	r3, [r6, #0]
    482e:	200a      	movs	r0, #10
    4830:	2b00      	cmp	r3, #0
    4832:	d100      	bne.n	4836 <start+0x12>
    4834:	2007      	movs	r0, #7
    4836:	f7fe fe7f 	bl	3538 <sark_cpu_state>
    483a:	2380      	movs	r3, #128	; 0x80
    483c:	2500      	movs	r5, #0
    483e:	059b      	lsls	r3, r3, #22
    4840:	601d      	str	r5, [r3, #0]
    4842:	f7ff fd3b 	bl	42bc <configure_dma_controller>
    4846:	4b27      	ldr	r3, [pc, #156]	; (48e4 <start+0xc0>)
    4848:	4f27      	ldr	r7, [pc, #156]	; (48e8 <start+0xc4>)
    484a:	6819      	ldr	r1, [r3, #0]
    484c:	6838      	ldr	r0, [r7, #0]
    484e:	f7ff fd49 	bl	42e4 <configure_timer1>
    4852:	6830      	ldr	r0, [r6, #0]
    4854:	4243      	negs	r3, r0
    4856:	4158      	adcs	r0, r3
    4858:	f7ff fd5e 	bl	4318 <configure_vic>
    485c:	4c23      	ldr	r4, [pc, #140]	; (48ec <start+0xc8>)
    485e:	2301      	movs	r3, #1
    4860:	6163      	str	r3, [r4, #20]
    4862:	9b01      	ldr	r3, [sp, #4]
    4864:	6065      	str	r5, [r4, #4]
    4866:	61e5      	str	r5, [r4, #28]
    4868:	6225      	str	r5, [r4, #32]
    486a:	6265      	str	r5, [r4, #36]	; 0x24
    486c:	6025      	str	r5, [r4, #0]
    486e:	63a5      	str	r5, [r4, #56]	; 0x38
    4870:	63e5      	str	r5, [r4, #60]	; 0x3c
    4872:	6465      	str	r5, [r4, #68]	; 0x44
    4874:	6425      	str	r5, [r4, #64]	; 0x40
    4876:	2b01      	cmp	r3, #1
    4878:	d101      	bne.n	487e <start+0x5a>
    487a:	f7ff f91b 	bl	3ab4 <event_wait>
    487e:	683b      	ldr	r3, [r7, #0]
    4880:	2b00      	cmp	r3, #0
    4882:	d005      	beq.n	4890 <start+0x6c>
    4884:	6833      	ldr	r3, [r6, #0]
    4886:	2b00      	cmp	r3, #0
    4888:	d102      	bne.n	4890 <start+0x6c>
    488a:	4b19      	ldr	r3, [pc, #100]	; (48f0 <start+0xcc>)
    488c:	22e2      	movs	r2, #226	; 0xe2
    488e:	601a      	str	r2, [r3, #0]
    4890:	4b18      	ldr	r3, [pc, #96]	; (48f4 <start+0xd0>)
    4892:	2200      	movs	r2, #0
    4894:	601a      	str	r2, [r3, #0]
    4896:	4b18      	ldr	r3, [pc, #96]	; (48f8 <start+0xd4>)
    4898:	3201      	adds	r2, #1
    489a:	601a      	str	r2, [r3, #0]
    489c:	f7ff fe58 	bl	4550 <dispatch>
    48a0:	f7ff ff2a 	bl	46f8 <clean_up>
    48a4:	f7fb ec88 	blx	1b8 <cpu_int_enable>
    48a8:	4b14      	ldr	r3, [pc, #80]	; (48fc <start+0xd8>)
    48aa:	4a15      	ldr	r2, [pc, #84]	; (4900 <start+0xdc>)
    48ac:	681b      	ldr	r3, [r3, #0]
    48ae:	6812      	ldr	r2, [r2, #0]
    48b0:	189b      	adds	r3, r3, r2
    48b2:	60a3      	str	r3, [r4, #8]
    48b4:	4b13      	ldr	r3, [pc, #76]	; (4904 <start+0xe0>)
    48b6:	4a14      	ldr	r2, [pc, #80]	; (4908 <start+0xe4>)
    48b8:	681b      	ldr	r3, [r3, #0]
    48ba:	60e3      	str	r3, [r4, #12]
    48bc:	4b13      	ldr	r3, [pc, #76]	; (490c <start+0xe8>)
    48be:	681b      	ldr	r3, [r3, #0]
    48c0:	61a3      	str	r3, [r4, #24]
    48c2:	4b13      	ldr	r3, [pc, #76]	; (4910 <start+0xec>)
    48c4:	681b      	ldr	r3, [r3, #0]
    48c6:	6812      	ldr	r2, [r2, #0]
    48c8:	189b      	adds	r3, r3, r2
    48ca:	62e3      	str	r3, [r4, #44]	; 0x2c
    48cc:	4b11      	ldr	r3, [pc, #68]	; (4914 <start+0xf0>)
    48ce:	681b      	ldr	r3, [r3, #0]
    48d0:	6323      	str	r3, [r4, #48]	; 0x30
    48d2:	f7ff ff47 	bl	4764 <report_debug>
    48d6:	f7ff ff81 	bl	47dc <report_warns>
    48da:	6820      	ldr	r0, [r4, #0]
    48dc:	bdfe      	pop	{r1, r2, r3, r4, r5, r6, r7, pc}
    48de:	46c0      	nop			; (mov r8, r8)
    48e0:	004042c0 	.word	0x004042c0
    48e4:	004045ec 	.word	0x004045ec
    48e8:	004045f0 	.word	0x004045f0
    48ec:	004046e0 	.word	0x004046e0
    48f0:	21000008 	.word	0x21000008
    48f4:	00404880 	.word	0x00404880
    48f8:	004042c8 	.word	0x004042c8
    48fc:	e1000300 	.word	0xe1000300
    4900:	e1000304 	.word	0xe1000304
    4904:	e1000320 	.word	0xe1000320
    4908:	e100031c 	.word	0xe100031c
    490c:	40000040 	.word	0x40000040
    4910:	e1000318 	.word	0xe1000318
    4914:	e100032c 	.word	0xe100032c

00004918 <spin1_start_paused>:
    4918:	b510      	push	{r4, lr}
    491a:	2101      	movs	r1, #1
    491c:	2000      	movs	r0, #0
    491e:	f7ff ff81 	bl	4824 <start>
    4922:	bd10      	pop	{r4, pc}

00004924 <spin1_delay_us>:
    4924:	b510      	push	{r4, lr}
    4926:	f7fb fcc9 	bl	2bc <sark_delay_us>
    492a:	bd10      	pop	{r4, pc}

0000492c <spin1_dma_transfer>:
    492c:	b5f0      	push	{r4, r5, r6, r7, lr}
    492e:	b085      	sub	sp, #20
    4930:	9100      	str	r1, [sp, #0]
    4932:	9201      	str	r2, [sp, #4]
    4934:	001c      	movs	r4, r3
    4936:	9003      	str	r0, [sp, #12]
    4938:	f7fb ec46 	blx	1c8 <cpu_int_disable>
    493c:	4a1e      	ldr	r2, [pc, #120]	; (49b8 <ZI_LENGTH+0x34>)
    493e:	260f      	movs	r6, #15
    4940:	6851      	ldr	r1, [r2, #4]
    4942:	6817      	ldr	r7, [r2, #0]
    4944:	1c4d      	adds	r5, r1, #1
    4946:	402e      	ands	r6, r5
    4948:	4b1c      	ldr	r3, [pc, #112]	; (49bc <ZI_LENGTH+0x38>)
    494a:	9002      	str	r0, [sp, #8]
    494c:	42be      	cmp	r6, r7
    494e:	d02a      	beq.n	49a6 <ZI_LENGTH+0x22>
    4950:	695d      	ldr	r5, [r3, #20]
    4952:	04e4      	lsls	r4, r4, #19
    4954:	1c68      	adds	r0, r5, #1
    4956:	6158      	str	r0, [r3, #20]
    4958:	980a      	ldr	r0, [sp, #40]	; 0x28
    495a:	23c0      	movs	r3, #192	; 0xc0
    495c:	045b      	lsls	r3, r3, #17
    495e:	4303      	orrs	r3, r0
    4960:	2014      	movs	r0, #20
    4962:	431c      	orrs	r4, r3
    4964:	0003      	movs	r3, r0
    4966:	434b      	muls	r3, r1
    4968:	18d2      	adds	r2, r2, r3
    496a:	9b03      	ldr	r3, [sp, #12]
    496c:	60d3      	str	r3, [r2, #12]
    496e:	9b00      	ldr	r3, [sp, #0]
    4970:	6113      	str	r3, [r2, #16]
    4972:	9b01      	ldr	r3, [sp, #4]
    4974:	6153      	str	r3, [r2, #20]
    4976:	4b12      	ldr	r3, [pc, #72]	; (49c0 <ZI_LENGTH+0x3c>)
    4978:	6095      	str	r5, [r2, #8]
    497a:	6194      	str	r4, [r2, #24]
    497c:	681b      	ldr	r3, [r3, #0]
    497e:	075b      	lsls	r3, r3, #29
    4980:	d409      	bmi.n	4996 <ZI_LENGTH+0x12>
    4982:	42b9      	cmp	r1, r7
    4984:	d107      	bne.n	4996 <ZI_LENGTH+0x12>
    4986:	4b0f      	ldr	r3, [pc, #60]	; (49c4 <ZI_LENGTH+0x40>)
    4988:	9a00      	ldr	r2, [sp, #0]
    498a:	601a      	str	r2, [r3, #0]
    498c:	4b0e      	ldr	r3, [pc, #56]	; (49c8 <ZI_LENGTH+0x44>)
    498e:	9a01      	ldr	r2, [sp, #4]
    4990:	601a      	str	r2, [r3, #0]
    4992:	4b0e      	ldr	r3, [pc, #56]	; (49cc <ZI_LENGTH+0x48>)
    4994:	601c      	str	r4, [r3, #0]
    4996:	4b08      	ldr	r3, [pc, #32]	; (49b8 <ZI_LENGTH+0x34>)
    4998:	605e      	str	r6, [r3, #4]
    499a:	9802      	ldr	r0, [sp, #8]
    499c:	f7fb ec1c 	blx	1d8 <cpu_int_restore>
    49a0:	0028      	movs	r0, r5
    49a2:	b005      	add	sp, #20
    49a4:	bdf0      	pop	{r4, r5, r6, r7, pc}
    49a6:	6859      	ldr	r1, [r3, #4]
    49a8:	2202      	movs	r2, #2
    49aa:	430a      	orrs	r2, r1
    49ac:	605a      	str	r2, [r3, #4]
    49ae:	69da      	ldr	r2, [r3, #28]
    49b0:	2500      	movs	r5, #0
    49b2:	3201      	adds	r2, #1
    49b4:	61da      	str	r2, [r3, #28]
    49b6:	e7f0      	b.n	499a <ZI_LENGTH+0x16>
    49b8:	00404734 	.word	0x00404734
    49bc:	004046e0 	.word	0x004046e0
    49c0:	40000014 	.word	0x40000014
    49c4:	40000004 	.word	0x40000004
    49c8:	40000008 	.word	0x40000008
    49cc:	4000000c 	.word	0x4000000c

000049d0 <spin1_memcpy>:
    49d0:	2300      	movs	r3, #0
    49d2:	b510      	push	{r4, lr}
    49d4:	429a      	cmp	r2, r3
    49d6:	d100      	bne.n	49da <spin1_memcpy+0xa>
    49d8:	bd10      	pop	{r4, pc}
    49da:	5ccc      	ldrb	r4, [r1, r3]
    49dc:	54c4      	strb	r4, [r0, r3]
    49de:	3301      	adds	r3, #1
    49e0:	e7f8      	b.n	49d4 <spin1_memcpy+0x4>
	...

000049e4 <spin1_send_packet>:
    49e4:	b5f0      	push	{r4, r5, r6, r7, lr}
    49e6:	b085      	sub	sp, #20
    49e8:	000d      	movs	r5, r1
    49ea:	0014      	movs	r4, r2
    49ec:	0006      	movs	r6, r0
    49ee:	f7fb ebdc 	blx	1a8 <cpu_irq_disable>
    49f2:	2180      	movs	r1, #128	; 0x80
    49f4:	0589      	lsls	r1, r1, #22
    49f6:	2300      	movs	r3, #0
    49f8:	270f      	movs	r7, #15
    49fa:	9001      	str	r0, [sp, #4]
    49fc:	600b      	str	r3, [r1, #0]
    49fe:	680a      	ldr	r2, [r1, #0]
    4a00:	4694      	mov	ip, r2
    4a02:	4660      	mov	r0, ip
    4a04:	4a32      	ldr	r2, [pc, #200]	; (4ad0 <spin1_send_packet+0xec>)
    4a06:	0040      	lsls	r0, r0, #1
    4a08:	d522      	bpl.n	4a50 <spin1_send_packet+0x6c>
    4a0a:	6850      	ldr	r0, [r2, #4]
    4a0c:	1c41      	adds	r1, r0, #1
    4a0e:	400f      	ands	r7, r1
    4a10:	6811      	ldr	r1, [r2, #0]
    4a12:	428f      	cmp	r7, r1
    4a14:	d10e      	bne.n	4a34 <spin1_send_packet+0x50>
    4a16:	4a2f      	ldr	r2, [pc, #188]	; (4ad4 <spin1_send_packet+0xf0>)
    4a18:	2104      	movs	r1, #4
    4a1a:	6850      	ldr	r0, [r2, #4]
    4a1c:	001c      	movs	r4, r3
    4a1e:	4301      	orrs	r1, r0
    4a20:	6051      	str	r1, [r2, #4]
    4a22:	6a51      	ldr	r1, [r2, #36]	; 0x24
    4a24:	3101      	adds	r1, #1
    4a26:	6251      	str	r1, [r2, #36]	; 0x24
    4a28:	9801      	ldr	r0, [sp, #4]
    4a2a:	f7fb ebd6 	blx	1d8 <cpu_int_restore>
    4a2e:	0020      	movs	r0, r4
    4a30:	b005      	add	sp, #20
    4a32:	bdf0      	pop	{r4, r5, r6, r7, pc}
    4a34:	230c      	movs	r3, #12
    4a36:	0001      	movs	r1, r0
    4a38:	4359      	muls	r1, r3
    4a3a:	6057      	str	r7, [r2, #4]
    4a3c:	1851      	adds	r1, r2, r1
    4a3e:	4b26      	ldr	r3, [pc, #152]	; (4ad8 <spin1_send_packet+0xf4>)
    4a40:	2280      	movs	r2, #128	; 0x80
    4a42:	0112      	lsls	r2, r2, #4
    4a44:	608e      	str	r6, [r1, #8]
    4a46:	60cd      	str	r5, [r1, #12]
    4a48:	610c      	str	r4, [r1, #16]
    4a4a:	601a      	str	r2, [r3, #0]
    4a4c:	2401      	movs	r4, #1
    4a4e:	e7eb      	b.n	4a28 <spin1_send_packet+0x44>
    4a50:	6853      	ldr	r3, [r2, #4]
    4a52:	6810      	ldr	r0, [r2, #0]
    4a54:	3301      	adds	r3, #1
    4a56:	403b      	ands	r3, r7
    4a58:	4283      	cmp	r3, r0
    4a5a:	d11a      	bne.n	4a92 <spin1_send_packet+0xae>
    4a5c:	200c      	movs	r0, #12
    4a5e:	4684      	mov	ip, r0
    4a60:	4660      	mov	r0, ip
    4a62:	4358      	muls	r0, r3
    4a64:	4684      	mov	ip, r0
    4a66:	4494      	add	ip, r2
    4a68:	4660      	mov	r0, ip
    4a6a:	6880      	ldr	r0, [r0, #8]
    4a6c:	9002      	str	r0, [sp, #8]
    4a6e:	4660      	mov	r0, ip
    4a70:	68c0      	ldr	r0, [r0, #12]
    4a72:	9003      	str	r0, [sp, #12]
    4a74:	4660      	mov	r0, ip
    4a76:	6900      	ldr	r0, [r0, #16]
    4a78:	3301      	adds	r3, #1
    4a7a:	403b      	ands	r3, r7
    4a7c:	6013      	str	r3, [r2, #0]
    4a7e:	0003      	movs	r3, r0
    4a80:	6008      	str	r0, [r1, #0]
    4a82:	039b      	lsls	r3, r3, #14
    4a84:	d502      	bpl.n	4a8c <spin1_send_packet+0xa8>
    4a86:	4b15      	ldr	r3, [pc, #84]	; (4adc <spin1_send_packet+0xf8>)
    4a88:	9a03      	ldr	r2, [sp, #12]
    4a8a:	601a      	str	r2, [r3, #0]
    4a8c:	4b14      	ldr	r3, [pc, #80]	; (4ae0 <spin1_send_packet+0xfc>)
    4a8e:	9a02      	ldr	r2, [sp, #8]
    4a90:	601a      	str	r2, [r3, #0]
    4a92:	490f      	ldr	r1, [pc, #60]	; (4ad0 <spin1_send_packet+0xec>)
    4a94:	684b      	ldr	r3, [r1, #4]
    4a96:	680a      	ldr	r2, [r1, #0]
    4a98:	429a      	cmp	r2, r3
    4a9a:	d10c      	bne.n	4ab6 <spin1_send_packet+0xd2>
    4a9c:	2380      	movs	r3, #128	; 0x80
    4a9e:	059b      	lsls	r3, r3, #22
    4aa0:	601c      	str	r4, [r3, #0]
    4aa2:	03a3      	lsls	r3, r4, #14
    4aa4:	d501      	bpl.n	4aaa <spin1_send_packet+0xc6>
    4aa6:	4b0d      	ldr	r3, [pc, #52]	; (4adc <spin1_send_packet+0xf8>)
    4aa8:	601d      	str	r5, [r3, #0]
    4aaa:	4b0d      	ldr	r3, [pc, #52]	; (4ae0 <spin1_send_packet+0xfc>)
    4aac:	2280      	movs	r2, #128	; 0x80
    4aae:	601e      	str	r6, [r3, #0]
    4ab0:	0112      	lsls	r2, r2, #4
    4ab2:	4b0c      	ldr	r3, [pc, #48]	; (4ae4 <spin1_send_packet+0x100>)
    4ab4:	e7c9      	b.n	4a4a <spin1_send_packet+0x66>
    4ab6:	200c      	movs	r0, #12
    4ab8:	0002      	movs	r2, r0
    4aba:	435a      	muls	r2, r3
    4abc:	188a      	adds	r2, r1, r2
    4abe:	6096      	str	r6, [r2, #8]
    4ac0:	60d5      	str	r5, [r2, #12]
    4ac2:	6114      	str	r4, [r2, #16]
    4ac4:	3301      	adds	r3, #1
    4ac6:	220f      	movs	r2, #15
    4ac8:	4013      	ands	r3, r2
    4aca:	604b      	str	r3, [r1, #4]
    4acc:	e7be      	b.n	4a4c <spin1_send_packet+0x68>
    4ace:	46c0      	nop			; (mov r8, r8)
    4ad0:	004048c8 	.word	0x004048c8
    4ad4:	004046e0 	.word	0x004046e0
    4ad8:	1f000010 	.word	0x1f000010
    4adc:	20000004 	.word	0x20000004
    4ae0:	20000008 	.word	0x20000008
    4ae4:	1f000014 	.word	0x1f000014

00004ae8 <spin1_send_mc_packet>:
    4ae8:	b510      	push	{r4, lr}
    4aea:	2a00      	cmp	r2, #0
    4aec:	d001      	beq.n	4af2 <spin1_send_mc_packet+0xa>
    4aee:	2280      	movs	r2, #128	; 0x80
    4af0:	0292      	lsls	r2, r2, #10
    4af2:	f7ff ff77 	bl	49e4 <spin1_send_packet>
    4af6:	bd10      	pop	{r4, pc}

00004af8 <spin1_get_core_id>:
    4af8:	4b01      	ldr	r3, [pc, #4]	; (4b00 <spin1_get_core_id+0x8>)
    4afa:	6818      	ldr	r0, [r3, #0]
    4afc:	4770      	bx	lr
    4afe:	46c0      	nop			; (mov r8, r8)
    4b00:	00404608 	.word	0x00404608

00004b04 <spin1_get_chip_id>:
    4b04:	4b01      	ldr	r3, [pc, #4]	; (4b0c <spin1_get_chip_id+0x8>)
    4b06:	8818      	ldrh	r0, [r3, #0]
    4b08:	4770      	bx	lr
    4b0a:	46c0      	nop			; (mov r8, r8)
    4b0c:	e5007f00 	.word	0xe5007f00

00004b10 <spin1_malloc>:
    4b10:	b510      	push	{r4, lr}
    4b12:	2101      	movs	r1, #1
    4b14:	f7ff f8fc 	bl	3d10 <sark_alloc>
    4b18:	bd10      	pop	{r4, pc}
	...

00004b1c <schedule_sysmode>:
    4b1c:	b5f0      	push	{r4, r5, r6, r7, lr}
    4b1e:	b085      	sub	sp, #20
    4b20:	9003      	str	r0, [sp, #12]
    4b22:	9b03      	ldr	r3, [sp, #12]
    4b24:	4d1e      	ldr	r5, [pc, #120]	; (4ba0 <schedule_sysmode+0x84>)
    4b26:	00de      	lsls	r6, r3, #3
    4b28:	19ab      	adds	r3, r5, r6
    4b2a:	685c      	ldr	r4, [r3, #4]
    4b2c:	0008      	movs	r0, r1
    4b2e:	2c00      	cmp	r4, #0
    4b30:	dc04      	bgt.n	4b3c <schedule_sysmode+0x20>
    4b32:	5973      	ldr	r3, [r6, r5]
    4b34:	0011      	movs	r1, r2
    4b36:	4798      	blx	r3
    4b38:	b005      	add	sp, #20
    4b3a:	bdf0      	pop	{r4, r5, r6, r7, pc}
    4b3c:	3c01      	subs	r4, #1
    4b3e:	21c8      	movs	r1, #200	; 0xc8
    4b40:	0027      	movs	r7, r4
    4b42:	434f      	muls	r7, r1
    4b44:	4b17      	ldr	r3, [pc, #92]	; (4ba4 <schedule_sysmode+0x88>)
    4b46:	9701      	str	r7, [sp, #4]
    4b48:	19df      	adds	r7, r3, r7
    4b4a:	6879      	ldr	r1, [r7, #4]
    4b4c:	9102      	str	r1, [sp, #8]
    4b4e:	3101      	adds	r1, #1
    4b50:	468c      	mov	ip, r1
    4b52:	4664      	mov	r4, ip
    4b54:	210f      	movs	r1, #15
    4b56:	400c      	ands	r4, r1
    4b58:	9901      	ldr	r1, [sp, #4]
    4b5a:	46a4      	mov	ip, r4
    4b5c:	58c9      	ldr	r1, [r1, r3]
    4b5e:	428c      	cmp	r4, r1
    4b60:	d014      	beq.n	4b8c <schedule_sysmode+0x70>
    4b62:	9c02      	ldr	r4, [sp, #8]
    4b64:	210c      	movs	r1, #12
    4b66:	434c      	muls	r4, r1
    4b68:	0021      	movs	r1, r4
    4b6a:	9c01      	ldr	r4, [sp, #4]
    4b6c:	190c      	adds	r4, r1, r4
    4b6e:	191b      	adds	r3, r3, r4
    4b70:	5971      	ldr	r1, [r6, r5]
    4b72:	6099      	str	r1, [r3, #8]
    4b74:	60d8      	str	r0, [r3, #12]
    4b76:	611a      	str	r2, [r3, #16]
    4b78:	4663      	mov	r3, ip
    4b7a:	607b      	str	r3, [r7, #4]
    4b7c:	9b03      	ldr	r3, [sp, #12]
    4b7e:	2b02      	cmp	r3, #2
    4b80:	d1da      	bne.n	4b38 <schedule_sysmode+0x1c>
    4b82:	4a09      	ldr	r2, [pc, #36]	; (4ba8 <schedule_sysmode+0x8c>)
    4b84:	6bd3      	ldr	r3, [r2, #60]	; 0x3c
    4b86:	3301      	adds	r3, #1
    4b88:	63d3      	str	r3, [r2, #60]	; 0x3c
    4b8a:	e7d5      	b.n	4b38 <schedule_sysmode+0x1c>
    4b8c:	4b06      	ldr	r3, [pc, #24]	; (4ba8 <schedule_sysmode+0x8c>)
    4b8e:	2201      	movs	r2, #1
    4b90:	6859      	ldr	r1, [r3, #4]
    4b92:	430a      	orrs	r2, r1
    4b94:	605a      	str	r2, [r3, #4]
    4b96:	6a1a      	ldr	r2, [r3, #32]
    4b98:	3201      	adds	r2, #1
    4b9a:	621a      	str	r2, [r3, #32]
    4b9c:	e7cc      	b.n	4b38 <schedule_sysmode+0x1c>
    4b9e:	46c0      	nop			; (mov r8, r8)
    4ba0:	00404888 	.word	0x00404888
    4ba4:	004042cc 	.word	0x004042cc
    4ba8:	004046e0 	.word	0x004046e0

00004bac <spin1_trigger_user_event>:
    4bac:	4b08      	ldr	r3, [pc, #32]	; (4bd0 <spin1_trigger_user_event+0x24>)
    4bae:	b510      	push	{r4, lr}
    4bb0:	781a      	ldrb	r2, [r3, #0]
    4bb2:	0004      	movs	r4, r0
    4bb4:	2000      	movs	r0, #0
    4bb6:	4282      	cmp	r2, r0
    4bb8:	d108      	bne.n	4bcc <spin1_trigger_user_event+0x20>
    4bba:	4a06      	ldr	r2, [pc, #24]	; (4bd4 <spin1_trigger_user_event+0x28>)
    4bbc:	3001      	adds	r0, #1
    4bbe:	6014      	str	r4, [r2, #0]
    4bc0:	4a05      	ldr	r2, [pc, #20]	; (4bd8 <spin1_trigger_user_event+0x2c>)
    4bc2:	7018      	strb	r0, [r3, #0]
    4bc4:	4b05      	ldr	r3, [pc, #20]	; (4bdc <spin1_trigger_user_event+0x30>)
    4bc6:	6011      	str	r1, [r2, #0]
    4bc8:	2202      	movs	r2, #2
    4bca:	601a      	str	r2, [r3, #0]
    4bcc:	bd10      	pop	{r4, pc}
    4bce:	46c0      	nop			; (mov r8, r8)
    4bd0:	004045f4 	.word	0x004045f4
    4bd4:	00404884 	.word	0x00404884
    4bd8:	0040472c 	.word	0x0040472c
    4bdc:	1f000018 	.word	0x1f000018

00004be0 <sark_pre_main>:
    4be0:	b510      	push	{r4, lr}
    4be2:	f7fe fd1f 	bl	3624 <sark_call_cpp_constructors>
    4be6:	2006      	movs	r0, #6
    4be8:	f7fe fca6 	bl	3538 <sark_cpu_state>
    4bec:	235b      	movs	r3, #91	; 0x5b
    4bee:	2201      	movs	r2, #1
    4bf0:	701a      	strb	r2, [r3, #0]
    4bf2:	f7fe fca9 	bl	3548 <sark_app_lead>
    4bf6:	4b04      	ldr	r3, [pc, #16]	; (4c08 <sark_pre_main+0x28>)
    4bf8:	681b      	ldr	r3, [r3, #0]
    4bfa:	1a18      	subs	r0, r3, r0
    4bfc:	4243      	negs	r3, r0
    4bfe:	4158      	adcs	r0, r3
    4c00:	4b02      	ldr	r3, [pc, #8]	; (4c0c <sark_pre_main+0x2c>)
    4c02:	7018      	strb	r0, [r3, #0]
    4c04:	bd10      	pop	{r4, pc}
    4c06:	46c0      	nop			; (mov r8, r8)
    4c08:	00404608 	.word	0x00404608
    4c0c:	00404730 	.word	0x00404730

00004c10 <sark_post_main>:
    4c10:	b510      	push	{r4, lr}
    4c12:	200b      	movs	r0, #11
    4c14:	f7fe fc90 	bl	3538 <sark_cpu_state>
    4c18:	bd10      	pop	{r4, pc}
	...

00004c1c <cc_rx_ready_isr>:
    4c1c:	e24ee004 	sub	lr, lr, #4
    4c20:	e92d500f 	push	{r0, r1, r2, r3, ip, lr}
    4c24:	e3a03202 	mov	r3, #536870912	; 0x20000000
    4c28:	e593200c 	ldr	r2, [r3, #12]
    4c2c:	e59f0054 	ldr	r0, [pc, #84]	; 4c88 <cc_rx_ready_isr+0x6c>
    4c30:	e2122802 	ands	r2, r2, #131072	; 0x20000
    4c34:	0a00000a 	beq	4c64 <cc_rx_ready_isr+0x48>
    4c38:	e5932010 	ldr	r2, [r3, #16]
    4c3c:	e5931014 	ldr	r1, [r3, #20]
    4c40:	e5903028 	ldr	r3, [r0, #40]	; 0x28
    4c44:	e3530000 	cmp	r3, #0
    4c48:	13a00005 	movne	r0, #5
    4c4c:	1a000009 	bne	4c78 <cc_rx_ready_isr+0x5c>
    4c50:	e59f2034 	ldr	r2, [pc, #52]	; 4c8c <cc_rx_ready_isr+0x70>
    4c54:	e5923010 	ldr	r3, [r2, #16]
    4c58:	e2833001 	add	r3, r3, #1
    4c5c:	e5823010 	str	r3, [r2, #16]
    4c60:	ea000005 	b	4c7c <cc_rx_ready_isr+0x60>
    4c64:	e5931014 	ldr	r1, [r3, #20]
    4c68:	e5903000 	ldr	r3, [r0]
    4c6c:	e3530000 	cmp	r3, #0
    4c70:	0afffff6 	beq	4c50 <cc_rx_ready_isr+0x34>
    4c74:	e1a00002 	mov	r0, r2
    4c78:	ebffedad 	bl	334 <schedule>
    4c7c:	e3a0341f 	mov	r3, #520093696	; 0x1f000000
    4c80:	e5833030 	str	r3, [r3, #48]	; 0x30
    4c84:	e8fd900f 	ldm	sp!, {r0, r1, r2, r3, ip, pc}^
    4c88:	00404888 	.word	0x00404888
    4c8c:	004046e0 	.word	0x004046e0

00004c90 <cc_rx_ready_fiqsr>:
    4c90:	e24ee004 	sub	lr, lr, #4
    4c94:	e92d500f 	push	{r0, r1, r2, r3, ip, lr}
    4c98:	e3a03202 	mov	r3, #536870912	; 0x20000000
    4c9c:	e593100c 	ldr	r1, [r3, #12]
    4ca0:	e59f201c 	ldr	r2, [pc, #28]	; 4cc4 <cc_rx_ready_fiqsr+0x34>
    4ca4:	e2111802 	ands	r1, r1, #131072	; 0x20000
    4ca8:	15931010 	ldrne	r1, [r3, #16]
    4cac:	05930014 	ldreq	r0, [r3, #20]
    4cb0:	15930014 	ldrne	r0, [r3, #20]
    4cb4:	05923000 	ldreq	r3, [r2]
    4cb8:	15923028 	ldrne	r3, [r2, #40]	; 0x28
    4cbc:	e12fff33 	blx	r3
    4cc0:	e8fd900f 	ldm	sp!, {r0, r1, r2, r3, ip, pc}^
    4cc4:	00404888 	.word	0x00404888

00004cc8 <cc_fr_ready_isr>:
    4cc8:	e24ee004 	sub	lr, lr, #4
    4ccc:	e92d500f 	push	{r0, r1, r2, r3, ip, lr}
    4cd0:	e3a03202 	mov	r3, #536870912	; 0x20000000
    4cd4:	e593200c 	ldr	r2, [r3, #12]
    4cd8:	e59f0054 	ldr	r0, [pc, #84]	; 4d34 <cc_fr_ready_isr+0x6c>
    4cdc:	e2122802 	ands	r2, r2, #131072	; 0x20000
    4ce0:	0a00000c 	beq	4d18 <cc_fr_ready_isr+0x50>
    4ce4:	e5932010 	ldr	r2, [r3, #16]
    4ce8:	e5931014 	ldr	r1, [r3, #20]
    4cec:	e5903038 	ldr	r3, [r0, #56]	; 0x38
    4cf0:	e3530000 	cmp	r3, #0
    4cf4:	13a00007 	movne	r0, #7
    4cf8:	1a00000b 	bne	4d2c <cc_fr_ready_isr+0x64>
    4cfc:	e59f2034 	ldr	r2, [pc, #52]	; 4d38 <cc_fr_ready_isr+0x70>
    4d00:	e5923034 	ldr	r3, [r2, #52]	; 0x34
    4d04:	e2833001 	add	r3, r3, #1
    4d08:	e5823034 	str	r3, [r2, #52]	; 0x34
    4d0c:	e3a0341f 	mov	r3, #520093696	; 0x1f000000
    4d10:	e5833030 	str	r3, [r3, #48]	; 0x30
    4d14:	e8fd900f 	ldm	sp!, {r0, r1, r2, r3, ip, pc}^
    4d18:	e5931014 	ldr	r1, [r3, #20]
    4d1c:	e5903030 	ldr	r3, [r0, #48]	; 0x30
    4d20:	e3530000 	cmp	r3, #0
    4d24:	0afffff4 	beq	4cfc <cc_fr_ready_isr+0x34>
    4d28:	e3a00006 	mov	r0, #6
    4d2c:	ebffed80 	bl	334 <schedule>
    4d30:	eafffff5 	b	4d0c <cc_fr_ready_isr+0x44>
    4d34:	00404888 	.word	0x00404888
    4d38:	004046e0 	.word	0x004046e0

00004d3c <cc_fr_ready_fiqsr>:
    4d3c:	e24ee004 	sub	lr, lr, #4
    4d40:	e92d500f 	push	{r0, r1, r2, r3, ip, lr}
    4d44:	e3a03202 	mov	r3, #536870912	; 0x20000000
    4d48:	e593100c 	ldr	r1, [r3, #12]
    4d4c:	e59f201c 	ldr	r2, [pc, #28]	; 4d70 <cc_fr_ready_fiqsr+0x34>
    4d50:	e2111802 	ands	r1, r1, #131072	; 0x20000
    4d54:	15931010 	ldrne	r1, [r3, #16]
    4d58:	05930014 	ldreq	r0, [r3, #20]
    4d5c:	15930014 	ldrne	r0, [r3, #20]
    4d60:	05923030 	ldreq	r3, [r2, #48]	; 0x30
    4d64:	15923038 	ldrne	r3, [r2, #56]	; 0x38
    4d68:	e12fff33 	blx	r3
    4d6c:	e8fd900f 	ldm	sp!, {r0, r1, r2, r3, ip, pc}^
    4d70:	00404888 	.word	0x00404888

00004d74 <cc_tx_empty_isr>:
    4d74:	e24ee004 	sub	lr, lr, #4
    4d78:	e92d501f 	push	{r0, r1, r2, r3, r4, ip, lr}
    4d7c:	e59f1078 	ldr	r1, [pc, #120]	; 4dfc <cc_tx_empty_isr+0x88>
    4d80:	e3a03202 	mov	r3, #536870912	; 0x20000000
    4d84:	e3a02000 	mov	r2, #0
    4d88:	e3a0c00c 	mov	ip, #12
    4d8c:	e5832000 	str	r2, [r3]
    4d90:	e5912000 	ldr	r2, [r1]
    4d94:	e5910004 	ldr	r0, [r1, #4]
    4d98:	e1520000 	cmp	r2, r0
    4d9c:	0a000012 	beq	4dec <cc_tx_empty_isr+0x78>
    4da0:	e5930000 	ldr	r0, [r3]
    4da4:	e3100101 	tst	r0, #1073741824	; 0x40000000
    4da8:	0a000003 	beq	4dbc <cc_tx_empty_isr+0x48>
    4dac:	e3a02001 	mov	r2, #1
    4db0:	e3a0341f 	mov	r3, #520093696	; 0x1f000000
    4db4:	e5832030 	str	r2, [r3, #48]	; 0x30
    4db8:	e8fd901f 	ldm	sp!, {r0, r1, r2, r3, r4, ip, pc}^
    4dbc:	e020129c 	mla	r0, ip, r2, r1
    4dc0:	e2822001 	add	r2, r2, #1
    4dc4:	e590e008 	ldr	lr, [r0, #8]
    4dc8:	e590400c 	ldr	r4, [r0, #12]
    4dcc:	e5900010 	ldr	r0, [r0, #16]
    4dd0:	e202200f 	and	r2, r2, #15
    4dd4:	e3100802 	tst	r0, #131072	; 0x20000
    4dd8:	e5812000 	str	r2, [r1]
    4ddc:	e5830000 	str	r0, [r3]
    4de0:	15834004 	strne	r4, [r3, #4]
    4de4:	e583e008 	str	lr, [r3, #8]
    4de8:	eaffffe8 	b	4d90 <cc_tx_empty_isr+0x1c>
    4dec:	e3a02b02 	mov	r2, #2048	; 0x800
    4df0:	e3a0341f 	mov	r3, #520093696	; 0x1f000000
    4df4:	e5832014 	str	r2, [r3, #20]
    4df8:	eaffffeb 	b	4dac <cc_tx_empty_isr+0x38>
    4dfc:	004048c8 	.word	0x004048c8

00004e00 <dma_done_isr>:
    4e00:	e24ee004 	sub	lr, lr, #4
    4e04:	e92d503f 	push	{r0, r1, r2, r3, r4, r5, ip, lr}
    4e08:	e59f0078 	ldr	r0, [pc, #120]	; 4e88 <dma_done_isr+0x88>
    4e0c:	e3a03008 	mov	r3, #8
    4e10:	e3a0c101 	mov	ip, #1073741824	; 0x40000000
    4e14:	e58c3010 	str	r3, [ip, #16]
    4e18:	e5903000 	ldr	r3, [r0]
    4e1c:	e3a0e014 	mov	lr, #20
    4e20:	e022039e 	mla	r2, lr, r3, r0
    4e24:	e5904004 	ldr	r4, [r0, #4]
    4e28:	e2833001 	add	r3, r3, #1
    4e2c:	e203300f 	and	r3, r3, #15
    4e30:	e1530004 	cmp	r3, r4
    4e34:	e5921008 	ldr	r1, [r2, #8]
    4e38:	e5803000 	str	r3, [r0]
    4e3c:	e592200c 	ldr	r2, [r2, #12]
    4e40:	0a000006 	beq	4e60 <dma_done_isr+0x60>
    4e44:	e023039e 	mla	r3, lr, r3, r0
    4e48:	e593e014 	ldr	lr, [r3, #20]
    4e4c:	e5930018 	ldr	r0, [r3, #24]
    4e50:	e5933010 	ldr	r3, [r3, #16]
    4e54:	e58c3004 	str	r3, [ip, #4]
    4e58:	e58ce008 	str	lr, [ip, #8]
    4e5c:	e58c000c 	str	r0, [ip, #12]
    4e60:	e59f3024 	ldr	r3, [pc, #36]	; 4e8c <dma_done_isr+0x8c>
    4e64:	e5933008 	ldr	r3, [r3, #8]
    4e68:	e3530000 	cmp	r3, #0
    4e6c:	0a000001 	beq	4e78 <dma_done_isr+0x78>
    4e70:	e3a00001 	mov	r0, #1
    4e74:	ebffed2e 	bl	334 <schedule>
    4e78:	e3a02001 	mov	r2, #1
    4e7c:	e3a0341f 	mov	r3, #520093696	; 0x1f000000
    4e80:	e5832030 	str	r2, [r3, #48]	; 0x30
    4e84:	e8fd903f 	ldm	sp!, {r0, r1, r2, r3, r4, r5, ip, pc}^
    4e88:	00404734 	.word	0x00404734
    4e8c:	00404888 	.word	0x00404888

00004e90 <dma_done_fiqsr>:
    4e90:	e24ee004 	sub	lr, lr, #4
    4e94:	e92d503f 	push	{r0, r1, r2, r3, r4, r5, ip, lr}
    4e98:	e59f2060 	ldr	r2, [pc, #96]	; 4f00 <dma_done_fiqsr+0x70>
    4e9c:	e3a03008 	mov	r3, #8
    4ea0:	e3a0c101 	mov	ip, #1073741824	; 0x40000000
    4ea4:	e58c3010 	str	r3, [ip, #16]
    4ea8:	e5923000 	ldr	r3, [r2]
    4eac:	e3a0e014 	mov	lr, #20
    4eb0:	e021239e 	mla	r1, lr, r3, r2
    4eb4:	e5924004 	ldr	r4, [r2, #4]
    4eb8:	e2833001 	add	r3, r3, #1
    4ebc:	e203300f 	and	r3, r3, #15
    4ec0:	e1530004 	cmp	r3, r4
    4ec4:	e5910008 	ldr	r0, [r1, #8]
    4ec8:	e5823000 	str	r3, [r2]
    4ecc:	e591100c 	ldr	r1, [r1, #12]
    4ed0:	0a000006 	beq	4ef0 <dma_done_fiqsr+0x60>
    4ed4:	e023239e 	mla	r3, lr, r3, r2
    4ed8:	e593e014 	ldr	lr, [r3, #20]
    4edc:	e5932018 	ldr	r2, [r3, #24]
    4ee0:	e5933010 	ldr	r3, [r3, #16]
    4ee4:	e58c3004 	str	r3, [ip, #4]
    4ee8:	e58ce008 	str	lr, [ip, #8]
    4eec:	e58c200c 	str	r2, [ip, #12]
    4ef0:	e59f300c 	ldr	r3, [pc, #12]	; 4f04 <dma_done_fiqsr+0x74>
    4ef4:	e5933008 	ldr	r3, [r3, #8]
    4ef8:	e12fff33 	blx	r3
    4efc:	e8fd903f 	ldm	sp!, {r0, r1, r2, r3, r4, r5, ip, pc}^
    4f00:	00404734 	.word	0x00404734
    4f04:	00404888 	.word	0x00404888

00004f08 <timer1_isr>:
    4f08:	e24ee004 	sub	lr, lr, #4
    4f0c:	e92d500f 	push	{r0, r1, r2, r3, ip, lr}
    4f10:	e3a02001 	mov	r2, #1
    4f14:	e3a03421 	mov	r3, #553648128	; 0x21000000
    4f18:	e583200c 	str	r2, [r3, #12]
    4f1c:	e59f3060 	ldr	r3, [pc, #96]	; 4f84 <timer1_isr+0x7c>
    4f20:	e5931000 	ldr	r1, [r3]
    4f24:	e0811002 	add	r1, r1, r2
    4f28:	e5831000 	str	r1, [r3]
    4f2c:	e59f3054 	ldr	r3, [pc, #84]	; 4f88 <timer1_isr+0x80>
    4f30:	e5933010 	ldr	r3, [r3, #16]
    4f34:	e3530000 	cmp	r3, #0
    4f38:	0a00000d 	beq	4f74 <timer1_isr+0x6c>
    4f3c:	e59f3048 	ldr	r3, [pc, #72]	; 4f8c <timer1_isr+0x84>
    4f40:	e5932038 	ldr	r2, [r3, #56]	; 0x38
    4f44:	e3520000 	cmp	r2, #0
    4f48:	0a000006 	beq	4f68 <timer1_isr+0x60>
    4f4c:	e5932044 	ldr	r2, [r3, #68]	; 0x44
    4f50:	e5930040 	ldr	r0, [r3, #64]	; 0x40
    4f54:	e2822001 	add	r2, r2, #1
    4f58:	e5832044 	str	r2, [r3, #68]	; 0x44
    4f5c:	e593203c 	ldr	r2, [r3, #60]	; 0x3c
    4f60:	e1520000 	cmp	r2, r0
    4f64:	85832040 	strhi	r2, [r3, #64]	; 0x40
    4f68:	e3a02000 	mov	r2, #0
    4f6c:	e3a00002 	mov	r0, #2
    4f70:	ebffecef 	bl	334 <schedule>
    4f74:	e3a02001 	mov	r2, #1
    4f78:	e3a0341f 	mov	r3, #520093696	; 0x1f000000
    4f7c:	e5832030 	str	r2, [r3, #48]	; 0x30
    4f80:	e8fd900f 	ldm	sp!, {r0, r1, r2, r3, ip, pc}^
    4f84:	00404880 	.word	0x00404880
    4f88:	00404888 	.word	0x00404888
    4f8c:	004046e0 	.word	0x004046e0

00004f90 <timer1_fiqsr>:
    4f90:	e24ee004 	sub	lr, lr, #4
    4f94:	e92d500f 	push	{r0, r1, r2, r3, ip, lr}
    4f98:	e3a02001 	mov	r2, #1
    4f9c:	e3a03421 	mov	r3, #553648128	; 0x21000000
    4fa0:	e583200c 	str	r2, [r3, #12]
    4fa4:	e59f301c 	ldr	r3, [pc, #28]	; 4fc8 <timer1_fiqsr+0x38>
    4fa8:	e3a01000 	mov	r1, #0
    4fac:	e5930000 	ldr	r0, [r3]
    4fb0:	e0800002 	add	r0, r0, r2
    4fb4:	e5830000 	str	r0, [r3]
    4fb8:	e59f300c 	ldr	r3, [pc, #12]	; 4fcc <timer1_fiqsr+0x3c>
    4fbc:	e5933010 	ldr	r3, [r3, #16]
    4fc0:	e12fff33 	blx	r3
    4fc4:	e8fd900f 	ldm	sp!, {r0, r1, r2, r3, ip, pc}^
    4fc8:	00404880 	.word	0x00404880
    4fcc:	00404888 	.word	0x00404888

00004fd0 <soft_int_isr>:
    4fd0:	e24ee004 	sub	lr, lr, #4
    4fd4:	e92d500f 	push	{r0, r1, r2, r3, ip, lr}
    4fd8:	e3a0341f 	mov	r3, #520093696	; 0x1f000000
    4fdc:	e3a02002 	mov	r2, #2
    4fe0:	e583201c 	str	r2, [r3, #28]
    4fe4:	e59f303c 	ldr	r3, [pc, #60]	; 5028 <soft_int_isr+0x58>
    4fe8:	e5933020 	ldr	r3, [r3, #32]
    4fec:	e3530000 	cmp	r3, #0
    4ff0:	0a000005 	beq	500c <soft_int_isr+0x3c>
    4ff4:	e59f3030 	ldr	r3, [pc, #48]	; 502c <soft_int_isr+0x5c>
    4ff8:	e3a00004 	mov	r0, #4
    4ffc:	e5932000 	ldr	r2, [r3]
    5000:	e59f3028 	ldr	r3, [pc, #40]	; 5030 <soft_int_isr+0x60>
    5004:	e5931000 	ldr	r1, [r3]
    5008:	ebffecc9 	bl	334 <schedule>
    500c:	e59f3020 	ldr	r3, [pc, #32]	; 5034 <soft_int_isr+0x64>
    5010:	e3a02000 	mov	r2, #0
    5014:	e5c32000 	strb	r2, [r3]
    5018:	e3a02001 	mov	r2, #1
    501c:	e3a0341f 	mov	r3, #520093696	; 0x1f000000
    5020:	e5832030 	str	r2, [r3, #48]	; 0x30
    5024:	e8fd900f 	ldm	sp!, {r0, r1, r2, r3, ip, pc}^
    5028:	00404888 	.word	0x00404888
    502c:	0040472c 	.word	0x0040472c
    5030:	00404884 	.word	0x00404884
    5034:	004045f4 	.word	0x004045f4

00005038 <soft_int_fiqsr>:
    5038:	e24ee004 	sub	lr, lr, #4
    503c:	e92d500f 	push	{r0, r1, r2, r3, ip, lr}
    5040:	e3a02002 	mov	r2, #2
    5044:	e3a0341f 	mov	r3, #520093696	; 0x1f000000
    5048:	e583201c 	str	r2, [r3, #28]
    504c:	e59f2024 	ldr	r2, [pc, #36]	; 5078 <soft_int_fiqsr+0x40>
    5050:	e59f3024 	ldr	r3, [pc, #36]	; 507c <soft_int_fiqsr+0x44>
    5054:	e5921000 	ldr	r1, [r2]
    5058:	e59f2020 	ldr	r2, [pc, #32]	; 5080 <soft_int_fiqsr+0x48>
    505c:	e5933020 	ldr	r3, [r3, #32]
    5060:	e5920000 	ldr	r0, [r2]
    5064:	e12fff33 	blx	r3
    5068:	e59f3014 	ldr	r3, [pc, #20]	; 5084 <soft_int_fiqsr+0x4c>
    506c:	e3a02000 	mov	r2, #0
    5070:	e5c32000 	strb	r2, [r3]
    5074:	e8fd900f 	ldm	sp!, {r0, r1, r2, r3, ip, pc}^
    5078:	0040472c 	.word	0x0040472c
    507c:	00404888 	.word	0x00404888
    5080:	00404884 	.word	0x00404884
    5084:	004045f4 	.word	0x004045f4

00005088 <memcpy>:
    5088:	e352000f 	cmp	r2, #15
    508c:	8a000009 	bhi	50b8 <memcpy+0x30>
    5090:	e3520000 	cmp	r2, #0
    5094:	e1a03000 	mov	r3, r0
    5098:	0a00003c 	beq	5190 <memcpy+0x108>
    509c:	e2433001 	sub	r3, r3, #1
    50a0:	e0812002 	add	r2, r1, r2
    50a4:	e4d1c001 	ldrb	ip, [r1], #1
    50a8:	e1510002 	cmp	r1, r2
    50ac:	e5e3c001 	strb	ip, [r3, #1]!
    50b0:	1afffffb 	bne	50a4 <memcpy+0x1c>
    50b4:	e12fff1e 	bx	lr
    50b8:	e1813000 	orr	r3, r1, r0
    50bc:	e3130003 	tst	r3, #3
    50c0:	1a000030 	bne	5188 <memcpy+0x100>
    50c4:	e92d40f0 	push	{r4, r5, r6, r7, lr}
    50c8:	e1a0e002 	mov	lr, r2
    50cc:	e280c010 	add	ip, r0, #16
    50d0:	e2813010 	add	r3, r1, #16
    50d4:	e5137010 	ldr	r7, [r3, #-16]
    50d8:	e513600c 	ldr	r6, [r3, #-12]
    50dc:	e5135008 	ldr	r5, [r3, #-8]
    50e0:	e5134004 	ldr	r4, [r3, #-4]
    50e4:	e24ee010 	sub	lr, lr, #16
    50e8:	e35e000f 	cmp	lr, #15
    50ec:	e50c7010 	str	r7, [ip, #-16]
    50f0:	e50c600c 	str	r6, [ip, #-12]
    50f4:	e50c5008 	str	r5, [ip, #-8]
    50f8:	e50c4004 	str	r4, [ip, #-4]
    50fc:	e2833010 	add	r3, r3, #16
    5100:	e28cc010 	add	ip, ip, #16
    5104:	8afffff2 	bhi	50d4 <memcpy+0x4c>
    5108:	e2423010 	sub	r3, r2, #16
    510c:	e3c3300f 	bic	r3, r3, #15
    5110:	e202600f 	and	r6, r2, #15
    5114:	e2833010 	add	r3, r3, #16
    5118:	e3560003 	cmp	r6, #3
    511c:	e0811003 	add	r1, r1, r3
    5120:	e0803003 	add	r3, r0, r3
    5124:	9a00001a 	bls	5194 <memcpy+0x10c>
    5128:	e1a04001 	mov	r4, r1
    512c:	e1a0c006 	mov	ip, r6
    5130:	e243e004 	sub	lr, r3, #4
    5134:	e24cc004 	sub	ip, ip, #4
    5138:	e4945004 	ldr	r5, [r4], #4
    513c:	e35c0003 	cmp	ip, #3
    5140:	e5ae5004 	str	r5, [lr, #4]!
    5144:	8afffffa 	bhi	5134 <memcpy+0xac>
    5148:	e246c004 	sub	ip, r6, #4
    514c:	e3ccc003 	bic	ip, ip, #3
    5150:	e28cc004 	add	ip, ip, #4
    5154:	e081100c 	add	r1, r1, ip
    5158:	e083300c 	add	r3, r3, ip
    515c:	e2022003 	and	r2, r2, #3
    5160:	e3520000 	cmp	r2, #0
    5164:	12433001 	subne	r3, r3, #1
    5168:	10812002 	addne	r2, r1, r2
    516c:	0a000003 	beq	5180 <memcpy+0xf8>
    5170:	e4d1c001 	ldrb	ip, [r1], #1
    5174:	e1510002 	cmp	r1, r2
    5178:	e5e3c001 	strb	ip, [r3, #1]!
    517c:	1afffffb 	bne	5170 <memcpy+0xe8>
    5180:	e8bd40f0 	pop	{r4, r5, r6, r7, lr}
    5184:	e12fff1e 	bx	lr
    5188:	e1a03000 	mov	r3, r0
    518c:	eaffffc2 	b	509c <memcpy+0x14>
    5190:	e12fff1e 	bx	lr
    5194:	e1a02006 	mov	r2, r6
    5198:	eafffff0 	b	5160 <memcpy+0xd8>

0000519c <memset>:
    519c:	e3100003 	tst	r0, #3
    51a0:	0a000040 	beq	52a8 <memset+0x10c>
    51a4:	e3520000 	cmp	r2, #0
    51a8:	e2422001 	sub	r2, r2, #1
    51ac:	012fff1e 	bxeq	lr
    51b0:	e201c0ff 	and	ip, r1, #255	; 0xff
    51b4:	e1a03000 	mov	r3, r0
    51b8:	ea000002 	b	51c8 <memset+0x2c>
    51bc:	e2422001 	sub	r2, r2, #1
    51c0:	e3720001 	cmn	r2, #1
    51c4:	012fff1e 	bxeq	lr
    51c8:	e4c3c001 	strb	ip, [r3], #1
    51cc:	e3130003 	tst	r3, #3
    51d0:	1afffff9 	bne	51bc <memset+0x20>
    51d4:	e3520003 	cmp	r2, #3
    51d8:	9a00002a 	bls	5288 <memset+0xec>
    51dc:	e92d4010 	push	{r4, lr}
    51e0:	e201e0ff 	and	lr, r1, #255	; 0xff
    51e4:	e18ee40e 	orr	lr, lr, lr, lsl #8
    51e8:	e352000f 	cmp	r2, #15
    51ec:	e18ee80e 	orr	lr, lr, lr, lsl #16
    51f0:	9a000010 	bls	5238 <memset+0x9c>
    51f4:	e1a04002 	mov	r4, r2
    51f8:	e283c010 	add	ip, r3, #16
    51fc:	e2444010 	sub	r4, r4, #16
    5200:	e354000f 	cmp	r4, #15
    5204:	e50ce010 	str	lr, [ip, #-16]
    5208:	e50ce00c 	str	lr, [ip, #-12]
    520c:	e50ce008 	str	lr, [ip, #-8]
    5210:	e50ce004 	str	lr, [ip, #-4]
    5214:	e28cc010 	add	ip, ip, #16
    5218:	8afffff7 	bhi	51fc <memset+0x60>
    521c:	e242c010 	sub	ip, r2, #16
    5220:	e3ccc00f 	bic	ip, ip, #15
    5224:	e202200f 	and	r2, r2, #15
    5228:	e28cc010 	add	ip, ip, #16
    522c:	e3520003 	cmp	r2, #3
    5230:	e083300c 	add	r3, r3, ip
    5234:	9a00000a 	bls	5264 <memset+0xc8>
    5238:	e1a04003 	mov	r4, r3
    523c:	e1a0c002 	mov	ip, r2
    5240:	e24cc004 	sub	ip, ip, #4
    5244:	e35c0003 	cmp	ip, #3
    5248:	e484e004 	str	lr, [r4], #4
    524c:	8afffffb 	bhi	5240 <memset+0xa4>
    5250:	e242c004 	sub	ip, r2, #4
    5254:	e3ccc003 	bic	ip, ip, #3
    5258:	e28cc004 	add	ip, ip, #4
    525c:	e083300c 	add	r3, r3, ip
    5260:	e2022003 	and	r2, r2, #3
    5264:	e3520000 	cmp	r2, #0
    5268:	0a000004 	beq	5280 <memset+0xe4>
    526c:	e20110ff 	and	r1, r1, #255	; 0xff
    5270:	e0832002 	add	r2, r3, r2
    5274:	e4c31001 	strb	r1, [r3], #1
    5278:	e1520003 	cmp	r2, r3
    527c:	1afffffc 	bne	5274 <memset+0xd8>
    5280:	e8bd4010 	pop	{r4, lr}
    5284:	e12fff1e 	bx	lr
    5288:	e3520000 	cmp	r2, #0
    528c:	012fff1e 	bxeq	lr
    5290:	e20110ff 	and	r1, r1, #255	; 0xff
    5294:	e0832002 	add	r2, r3, r2
    5298:	e4c31001 	strb	r1, [r3], #1
    529c:	e1520003 	cmp	r2, r3
    52a0:	1afffffc 	bne	5298 <memset+0xfc>
    52a4:	e12fff1e 	bx	lr
    52a8:	e1a03000 	mov	r3, r0
    52ac:	eaffffc8 	b	51d4 <memset+0x38>

000052b0 <__spin1_start_paused_from_arm>:
    52b0:	e51ff004 	ldr	pc, [pc, #-4]	; 52b4 <__spin1_start_paused_from_arm+0x4>
    52b4:	00004919 	.word	0x00004919

000052b8 <__spin1_exit_from_arm>:
    52b8:	e51ff004 	ldr	pc, [pc, #-4]	; 52bc <__spin1_exit_from_arm+0x4>
    52bc:	000046c1 	.word	0x000046c1

000052c0 <__spin1_pause_from_arm>:
    52c0:	e51ff004 	ldr	pc, [pc, #-4]	; 52c4 <__spin1_pause_from_arm+0x4>
    52c4:	00004485 	.word	0x00004485

000052c8 <__spin1_msg_free_from_arm>:
    52c8:	e51ff004 	ldr	pc, [pc, #-4]	; 52cc <__spin1_msg_free_from_arm+0x4>
    52cc:	000042ad 	.word	0x000042ad

000052d0 <__spin1_send_sdp_msg_from_arm>:
    52d0:	e51ff004 	ldr	pc, [pc, #-4]	; 52d4 <__spin1_send_sdp_msg_from_arm+0x4>
    52d4:	000042b5 	.word	0x000042b5

000052d8 <__sark_msg_free_from_arm>:
    52d8:	e51ff004 	ldr	pc, [pc, #-4]	; 52dc <__sark_msg_free_from_arm+0x4>
    52dc:	000035ad 	.word	0x000035ad

000052e0 <__init_array_end>:
    52e0:	5f74756f 	.word	0x5f74756f
    52e4:	6b697073 	.word	0x6b697073
    52e8:	632e7365 	.word	0x632e7365
    52ec:	00000000 	.word	0x00000000
    52f0:	464e495b 	.word	0x464e495b
    52f4:	20205d4f 	.word	0x20205d4f
    52f8:	25282020 	.word	0x25282020
    52fc:	34253a73 	.word	0x34253a73
    5300:	203a2964 	.word	0x203a2964
    5304:	2074754f 	.word	0x2074754f
    5308:	6b697073 	.word	0x6b697073
    530c:	69732065 	.word	0x69732065
    5310:	6920657a 	.word	0x6920657a
    5314:	75252073 	.word	0x75252073
    5318:	726f7720 	.word	0x726f7720
    531c:	202c7364 	.word	0x202c7364
    5320:	6f6c6c61 	.word	0x6f6c6c61
    5324:	676e6977 	.word	0x676e6977
    5328:	20752520 	.word	0x20752520
    532c:	6b697073 	.word	0x6b697073
    5330:	6f732065 	.word	0x6f732065
    5334:	65637275 	.word	0x65637275
    5338:	00000a73 	.word	0x00000a73
    533c:	5252455b 	.word	0x5252455b
    5340:	205d524f 	.word	0x205d524f
    5344:	25282020 	.word	0x25282020
    5348:	34253a73 	.word	0x34253a73
    534c:	203a2964 	.word	0x203a2964
    5350:	2074754f 	.word	0x2074754f
    5354:	4420666f 	.word	0x4420666f
    5358:	204d4354 	.word	0x204d4354
    535c:	6e656877 	.word	0x6e656877
    5360:	6c6c6120 	.word	0x6c6c6120
    5364:	7461636f 	.word	0x7461636f
    5368:	20676e69 	.word	0x20676e69
    536c:	5f74756f 	.word	0x5f74756f
    5370:	6b697073 	.word	0x6b697073
    5374:	000a7365 	.word	0x000a7365
    5378:	616d5f63 	.word	0x616d5f63
    537c:	632e6e69 	.word	0x632e6e69
    5380:	00000000 	.word	0x00000000
    5384:	5252455b 	.word	0x5252455b
    5388:	205d524f 	.word	0x205d524f
    538c:	25282020 	.word	0x25282020
    5390:	34253a73 	.word	0x34253a73
    5394:	203a2964 	.word	0x203a2964
    5398:	6c696166 	.word	0x6c696166
    539c:	74206465 	.word	0x74206465
    53a0:	6572206f 	.word	0x6572206f
    53a4:	64616f6c 	.word	0x64616f6c
    53a8:	65687420 	.word	0x65687420
    53ac:	75656e20 	.word	0x75656e20
    53b0:	206e6f72 	.word	0x206e6f72
    53b4:	61726170 	.word	0x61726170
    53b8:	6574656d 	.word	0x6574656d
    53bc:	0a2e7372 	.word	0x0a2e7372
    53c0:	00000000 	.word	0x00000000
    53c4:	464e495b 	.word	0x464e495b
    53c8:	20205d4f 	.word	0x20205d4f
    53cc:	25282020 	.word	0x25282020
    53d0:	34253a73 	.word	0x34253a73
    53d4:	203a2964 	.word	0x203a2964
    53d8:	706d6f43 	.word	0x706d6f43
    53dc:	6574656c 	.word	0x6574656c
    53e0:	20612064 	.word	0x20612064
    53e4:	0a6e7572 	.word	0x0a6e7572
    53e8:	00000000 	.word	0x00000000
    53ec:	464e495b 	.word	0x464e495b
    53f0:	20205d4f 	.word	0x20205d4f
    53f4:	25282020 	.word	0x25282020
    53f8:	34253a73 	.word	0x34253a73
    53fc:	203a2964 	.word	0x203a2964
    5400:	61647075 	.word	0x61647075
    5404:	676e6974 	.word	0x676e6974
    5408:	63657220 	.word	0x63657220
    540c:	6964726f 	.word	0x6964726f
    5410:	7220676e 	.word	0x7220676e
    5414:	6f696765 	.word	0x6f696765
    5418:	000a736e 	.word	0x000a736e
    541c:	464e495b 	.word	0x464e495b
    5420:	20205d4f 	.word	0x20205d4f
    5424:	25282020 	.word	0x25282020
    5428:	34253a73 	.word	0x34253a73
    542c:	203a2964 	.word	0x203a2964
    5430:	74696e49 	.word	0x74696e49
    5434:	696c6169 	.word	0x696c6169
    5438:	203a6573 	.word	0x203a6573
    543c:	72617473 	.word	0x72617473
    5440:	0a646574 	.word	0x0a646574
    5444:	00000000 	.word	0x00000000
    5448:	464e495b 	.word	0x464e495b
    544c:	20205d4f 	.word	0x20205d4f
    5450:	25282020 	.word	0x25282020
    5454:	34253a73 	.word	0x34253a73
    5458:	203a2964 	.word	0x203a2964
    545c:	6f636552 	.word	0x6f636552
    5460:	6e696472 	.word	0x6e696472
    5464:	6c662067 	.word	0x6c662067
    5468:	20736761 	.word	0x20736761
    546c:	7830203d 	.word	0x7830203d
    5470:	78383025 	.word	0x78383025
    5474:	0000000a 	.word	0x0000000a
    5478:	464e495b 	.word	0x464e495b
    547c:	20205d4f 	.word	0x20205d4f
    5480:	25282020 	.word	0x25282020
    5484:	34253a73 	.word	0x34253a73
    5488:	203a2964 	.word	0x203a2964
    548c:	74696e49 	.word	0x74696e49
    5490:	696c6169 	.word	0x696c6169
    5494:	203a6573 	.word	0x203a6573
    5498:	696e6966 	.word	0x696e6966
    549c:	64656873 	.word	0x64656873
    54a0:	0000000a 	.word	0x0000000a
    54a4:	464e495b 	.word	0x464e495b
    54a8:	20205d4f 	.word	0x20205d4f
    54ac:	25282020 	.word	0x25282020
    54b0:	34253a73 	.word	0x34253a73
    54b4:	203a2964 	.word	0x203a2964
    54b8:	74746573 	.word	0x74746573
    54bc:	20676e69 	.word	0x20676e69
    54c0:	656d6974 	.word	0x656d6974
    54c4:	69742072 	.word	0x69742072
    54c8:	63206b63 	.word	0x63206b63
    54cc:	626c6c61 	.word	0x626c6c61
    54d0:	206b6361 	.word	0x206b6361
    54d4:	20726f66 	.word	0x20726f66
    54d8:	6d206425 	.word	0x6d206425
    54dc:	6f726369 	.word	0x6f726369
    54e0:	6f636573 	.word	0x6f636573
    54e4:	0a73646e 	.word	0x0a73646e
    54e8:	00000000 	.word	0x00000000
    54ec:	616e7973 	.word	0x616e7973
    54f0:	73657370 	.word	0x73657370
    54f4:	0000632e 	.word	0x0000632e
    54f8:	464e495b 	.word	0x464e495b
    54fc:	20205d4f 	.word	0x20205d4f
    5500:	25282020 	.word	0x25282020
    5504:	34253a73 	.word	0x34253a73
    5508:	203a2964 	.word	0x203a2964
    550c:	616e7973 	.word	0x616e7973
    5510:	73657370 	.word	0x73657370
    5514:	696e695f 	.word	0x696e695f
    5518:	6c616974 	.word	0x6c616974
    551c:	3a657369 	.word	0x3a657369
    5520:	61747320 	.word	0x61747320
    5524:	6e697472 	.word	0x6e697472
    5528:	00000a67 	.word	0x00000a67
    552c:	5252455b 	.word	0x5252455b
    5530:	205d524f 	.word	0x205d524f
    5534:	25282020 	.word	0x25282020
    5538:	34253a73 	.word	0x34253a73
    553c:	203a2964 	.word	0x203a2964
    5540:	6e6e6143 	.word	0x6e6e6143
    5544:	6120746f 	.word	0x6120746f
    5548:	636f6c6c 	.word	0x636f6c6c
    554c:	20657461 	.word	0x20657461
    5550:	7275656e 	.word	0x7275656e
    5554:	73206e6f 	.word	0x73206e6f
    5558:	70616e79 	.word	0x70616e79
    555c:	70206573 	.word	0x70206573
    5560:	6d617261 	.word	0x6d617261
    5564:	72657465 	.word	0x72657465
    5568:	4f202d73 	.word	0x4f202d73
    556c:	6f207475 	.word	0x6f207475
    5570:	54442066 	.word	0x54442066
    5574:	000a4d43 	.word	0x000a4d43
    5578:	464e495b 	.word	0x464e495b
    557c:	20205d4f 	.word	0x20205d4f
    5580:	25282020 	.word	0x25282020
    5584:	34253a73 	.word	0x34253a73
    5588:	203a2964 	.word	0x203a2964
    558c:	616e7973 	.word	0x616e7973
    5590:	20657370 	.word	0x20657370
    5594:	65707974 	.word	0x65707974
    5598:	2c732520 	.word	0x2c732520
    559c:	6e697220 	.word	0x6e697220
    55a0:	75622067 	.word	0x75622067
    55a4:	72656666 	.word	0x72656666
    55a8:	206f7420 	.word	0x206f7420
    55ac:	75706e69 	.word	0x75706e69
    55b0:	656c2074 	.word	0x656c2074
    55b4:	73207466 	.word	0x73207466
    55b8:	74666968 	.word	0x74666968
    55bc:	0a752520 	.word	0x0a752520
    55c0:	00000000 	.word	0x00000000
    55c4:	00000058 	.word	0x00000058
    55c8:	00000049 	.word	0x00000049
    55cc:	464e495b 	.word	0x464e495b
    55d0:	20205d4f 	.word	0x20205d4f
    55d4:	25282020 	.word	0x25282020
    55d8:	34253a73 	.word	0x34253a73
    55dc:	203a2964 	.word	0x203a2964
    55e0:	69646e49 	.word	0x69646e49
    55e4:	74636572 	.word	0x74636572
    55e8:	74616d20 	.word	0x74616d20
    55ec:	20786972 	.word	0x20786972
    55f0:	25207369 	.word	0x25207369
    55f4:	6f772075 	.word	0x6f772075
    55f8:	20736472 	.word	0x20736472
    55fc:	73206e69 	.word	0x73206e69
    5600:	0a657a69 	.word	0x0a657a69
    5604:	00000000 	.word	0x00000000
    5608:	464e495b 	.word	0x464e495b
    560c:	20205d4f 	.word	0x20205d4f
    5610:	25282020 	.word	0x25282020
    5614:	34253a73 	.word	0x34253a73
    5618:	203a2964 	.word	0x203a2964
    561c:	65726944 	.word	0x65726944
    5620:	6d207463 	.word	0x6d207463
    5624:	69727461 	.word	0x69727461
    5628:	616d2078 	.word	0x616d2078
    562c:	636f6c6c 	.word	0x636f6c6c
    5630:	7a697320 	.word	0x7a697320
    5634:	73692065 	.word	0x73692065
    5638:	0a642520 	.word	0x0a642520
    563c:	00000000 	.word	0x00000000
    5640:	5252455b 	.word	0x5252455b
    5644:	205d524f 	.word	0x205d524f
    5648:	25282020 	.word	0x25282020
    564c:	34253a73 	.word	0x34253a73
    5650:	203a2964 	.word	0x203a2964
    5654:	20746f4e 	.word	0x20746f4e
    5658:	756f6e65 	.word	0x756f6e65
    565c:	6d206867 	.word	0x6d206867
    5660:	726f6d65 	.word	0x726f6d65
    5664:	6f742079 	.word	0x6f742079
    5668:	6c6c6120 	.word	0x6c6c6120
    566c:	7461636f 	.word	0x7461636f
    5670:	69642065 	.word	0x69642065
    5674:	74636572 	.word	0x74636572
    5678:	74616d20 	.word	0x74616d20
    567c:	0a786972 	.word	0x0a786972
    5680:	00000000 	.word	0x00000000
    5684:	464e495b 	.word	0x464e495b
    5688:	20205d4f 	.word	0x20205d4f
    568c:	25282020 	.word	0x25282020
    5690:	34253a73 	.word	0x34253a73
    5694:	203a2964 	.word	0x203a2964
    5698:	79706f43 	.word	0x79706f43
    569c:	20676e69 	.word	0x20676e69
    56a0:	62207525 	.word	0x62207525
    56a4:	73657479 	.word	0x73657479
    56a8:	20666f20 	.word	0x20666f20
    56ac:	65726964 	.word	0x65726964
    56b0:	73207463 	.word	0x73207463
    56b4:	70616e79 	.word	0x70616e79
    56b8:	20736573 	.word	0x20736573
    56bc:	30206f74 	.word	0x30206f74
    56c0:	38302578 	.word	0x38302578
    56c4:	00000a78 	.word	0x00000a78
    56c8:	464e495b 	.word	0x464e495b
    56cc:	20205d4f 	.word	0x20205d4f
    56d0:	25282020 	.word	0x25282020
    56d4:	34253a73 	.word	0x34253a73
    56d8:	203a2964 	.word	0x203a2964
    56dc:	616e7973 	.word	0x616e7973
    56e0:	73657370 	.word	0x73657370
    56e4:	696e695f 	.word	0x696e695f
    56e8:	6c616974 	.word	0x6c616974
    56ec:	3a657369 	.word	0x3a657369
    56f0:	6d6f6320 	.word	0x6d6f6320
    56f4:	74656c70 	.word	0x74656c70
    56f8:	73206465 	.word	0x73206465
    56fc:	65636375 	.word	0x65636375
    5700:	75667373 	.word	0x75667373
    5704:	0a796c6c 	.word	0x0a796c6c
    5708:	00000000 	.word	0x00000000
    570c:	7275656e 	.word	0x7275656e
    5710:	632e6e6f 	.word	0x632e6e6f
    5714:	00000000 	.word	0x00000000
    5718:	464e495b 	.word	0x464e495b
    571c:	20205d4f 	.word	0x20205d4f
    5720:	25282020 	.word	0x25282020
    5724:	34253a73 	.word	0x34253a73
    5728:	203a2964 	.word	0x203a2964
    572c:	64616f6c 	.word	0x64616f6c
    5730:	20676e69 	.word	0x20676e69
    5734:	7275656e 	.word	0x7275656e
    5738:	67206e6f 	.word	0x67206e6f
    573c:	61626f6c 	.word	0x61626f6c
    5740:	6170206c 	.word	0x6170206c
    5744:	656d6172 	.word	0x656d6172
    5748:	73726574 	.word	0x73726574
    574c:	0000000a 	.word	0x0000000a
    5750:	464e495b 	.word	0x464e495b
    5754:	20205d4f 	.word	0x20205d4f
    5758:	25282020 	.word	0x25282020
    575c:	34253a73 	.word	0x34253a73
    5760:	203a2964 	.word	0x203a2964
    5764:	64616f6c 	.word	0x64616f6c
    5768:	20676e69 	.word	0x20676e69
    576c:	7275656e 	.word	0x7275656e
    5770:	6c206e6f 	.word	0x6c206e6f
    5774:	6c61636f 	.word	0x6c61636f
    5778:	72617020 	.word	0x72617020
    577c:	74656d61 	.word	0x74656d61
    5780:	0a737265 	.word	0x0a737265
    5784:	00000000 	.word	0x00000000
    5788:	464e495b 	.word	0x464e495b
    578c:	20205d4f 	.word	0x20205d4f
    5790:	25282020 	.word	0x25282020
    5794:	34253a73 	.word	0x34253a73
    5798:	203a2964 	.word	0x203a2964
    579c:	64616f6c 	.word	0x64616f6c
    57a0:	20676e69 	.word	0x20676e69
    57a4:	75706e69 	.word	0x75706e69
    57a8:	79742074 	.word	0x79742074
    57ac:	70206570 	.word	0x70206570
    57b0:	6d617261 	.word	0x6d617261
    57b4:	72657465 	.word	0x72657465
    57b8:	00000a73 	.word	0x00000a73
    57bc:	464e495b 	.word	0x464e495b
    57c0:	20205d4f 	.word	0x20205d4f
    57c4:	25282020 	.word	0x25282020
    57c8:	34253a73 	.word	0x34253a73
    57cc:	203a2964 	.word	0x203a2964
    57d0:	64616f6c 	.word	0x64616f6c
    57d4:	20676e69 	.word	0x20676e69
    57d8:	69646461 	.word	0x69646461
    57dc:	6e6f6974 	.word	0x6e6f6974
    57e0:	69206c61 	.word	0x69206c61
    57e4:	7475706e 	.word	0x7475706e
    57e8:	70797420 	.word	0x70797420
    57ec:	61702065 	.word	0x61702065
    57f0:	656d6172 	.word	0x656d6172
    57f4:	73726574 	.word	0x73726574
    57f8:	0000000a 	.word	0x0000000a
    57fc:	464e495b 	.word	0x464e495b
    5800:	20205d4f 	.word	0x20205d4f
    5804:	25282020 	.word	0x25282020
    5808:	34253a73 	.word	0x34253a73
    580c:	203a2964 	.word	0x203a2964
    5810:	64616f6c 	.word	0x64616f6c
    5814:	20676e69 	.word	0x20676e69
    5818:	65726874 	.word	0x65726874
    581c:	6c6f6873 	.word	0x6c6f6873
    5820:	79742064 	.word	0x79742064
    5824:	70206570 	.word	0x70206570
    5828:	6d617261 	.word	0x6d617261
    582c:	72657465 	.word	0x72657465
    5830:	00000a73 	.word	0x00000a73
    5834:	464e495b 	.word	0x464e495b
    5838:	20205d4f 	.word	0x20205d4f
    583c:	25282020 	.word	0x25282020
    5840:	34253a73 	.word	0x34253a73
    5844:	203a2964 	.word	0x203a2964
    5848:	7275656e 	.word	0x7275656e
    584c:	725f6e6f 	.word	0x725f6e6f
    5850:	616f6c65 	.word	0x616f6c65
    5854:	676e6964 	.word	0x676e6964
    5858:	75656e5f 	.word	0x75656e5f
    585c:	5f6e6f72 	.word	0x5f6e6f72
    5860:	61726170 	.word	0x61726170
    5864:	6574656d 	.word	0x6574656d
    5868:	203a7372 	.word	0x203a7372
    586c:	72617473 	.word	0x72617473
    5870:	676e6974 	.word	0x676e6974
    5874:	0000000a 	.word	0x0000000a
    5878:	464e495b 	.word	0x464e495b
    587c:	20205d4f 	.word	0x20205d4f
    5880:	25282020 	.word	0x25282020
    5884:	34253a73 	.word	0x34253a73
    5888:	203a2964 	.word	0x203a2964
    588c:	7275656e 	.word	0x7275656e
    5890:	695f6e6f 	.word	0x695f6e6f
    5894:	6974696e 	.word	0x6974696e
    5898:	73696c61 	.word	0x73696c61
    589c:	73203a65 	.word	0x73203a65
    58a0:	74726174 	.word	0x74726174
    58a4:	0a676e69 	.word	0x0a676e69
    58a8:	00000000 	.word	0x00000000
    58ac:	464e495b 	.word	0x464e495b
    58b0:	20205d4f 	.word	0x20205d4f
    58b4:	25282020 	.word	0x25282020
    58b8:	34253a73 	.word	0x34253a73
    58bc:	203a2964 	.word	0x203a2964
    58c0:	61622009 	.word	0x61622009
    58c4:	6f206b63 	.word	0x6f206b63
    58c8:	3d206666 	.word	0x3d206666
    58cc:	2c752520 	.word	0x2c752520
    58d0:	6d697420 	.word	0x6d697420
    58d4:	65622065 	.word	0x65622065
    58d8:	65657774 	.word	0x65657774
    58dc:	7073206e 	.word	0x7073206e
    58e0:	73656b69 	.word	0x73656b69
    58e4:	0a752520 	.word	0x0a752520
    58e8:	00000000 	.word	0x00000000
    58ec:	464e495b 	.word	0x464e495b
    58f0:	20205d4f 	.word	0x20205d4f
    58f4:	25282020 	.word	0x25282020
    58f8:	34253a73 	.word	0x34253a73
    58fc:	203a2964 	.word	0x203a2964
    5900:	69685409 	.word	0x69685409
    5904:	6f6d2073 	.word	0x6f6d2073
    5908:	206c6564 	.word	0x206c6564
    590c:	6e207369 	.word	0x6e207369
    5910:	6520746f 	.word	0x6520746f
    5914:	63657078 	.word	0x63657078
    5918:	676e6974 	.word	0x676e6974
    591c:	206f7420 	.word	0x206f7420
    5920:	6e617274 	.word	0x6e617274
    5924:	74696d73 	.word	0x74696d73
    5928:	20736120 	.word	0x20736120
    592c:	68207469 	.word	0x68207469
    5930:	6e207361 	.word	0x6e207361
    5934:	656b206f 	.word	0x656b206f
    5938:	00000a79 	.word	0x00000a79
    593c:	464e495b 	.word	0x464e495b
    5940:	20205d4f 	.word	0x20205d4f
    5944:	25282020 	.word	0x25282020
    5948:	34253a73 	.word	0x34253a73
    594c:	203a2964 	.word	0x203a2964
    5950:	69685409 	.word	0x69685409
    5954:	6f6d2073 	.word	0x6f6d2073
    5958:	206c6564 	.word	0x206c6564
    595c:	65207369 	.word	0x65207369
    5960:	63657078 	.word	0x63657078
    5964:	20646574 	.word	0x20646574
    5968:	74206f74 	.word	0x74206f74
    596c:	736e6172 	.word	0x736e6172
    5970:	2074696d 	.word	0x2074696d
    5974:	68746977 	.word	0x68746977
    5978:	79656b20 	.word	0x79656b20
    597c:	25203d20 	.word	0x25203d20
    5980:	0a783830 	.word	0x0a783830
    5984:	00000000 	.word	0x00000000
    5988:	464e495b 	.word	0x464e495b
    598c:	20205d4f 	.word	0x20205d4f
    5990:	25282020 	.word	0x25282020
    5994:	34253a73 	.word	0x34253a73
    5998:	203a2964 	.word	0x203a2964
    599c:	656e2009 	.word	0x656e2009
    59a0:	6e6f7275 	.word	0x6e6f7275
    59a4:	203d2073 	.word	0x203d2073
    59a8:	202c7525 	.word	0x202c7525
    59ac:	6b697073 	.word	0x6b697073
    59b0:	75622065 	.word	0x75622065
    59b4:	72656666 	.word	0x72656666
    59b8:	7a697320 	.word	0x7a697320
    59bc:	203d2065 	.word	0x203d2065
    59c0:	202c7525 	.word	0x202c7525
    59c4:	61726170 	.word	0x61726170
    59c8:	7320736d 	.word	0x7320736d
    59cc:	20657a69 	.word	0x20657a69
    59d0:	7525203d 	.word	0x7525203d
    59d4:	706e692c 	.word	0x706e692c
    59d8:	74207475 	.word	0x74207475
    59dc:	20657079 	.word	0x20657079
    59e0:	657a6973 	.word	0x657a6973
    59e4:	25203d20 	.word	0x25203d20
    59e8:	74202c75 	.word	0x74202c75
    59ec:	73657268 	.word	0x73657268
    59f0:	646c6f68 	.word	0x646c6f68
    59f4:	7a697320 	.word	0x7a697320
    59f8:	203d2065 	.word	0x203d2065
    59fc:	000a7525 	.word	0x000a7525
    5a00:	5252455b 	.word	0x5252455b
    5a04:	205d524f 	.word	0x205d524f
    5a08:	25282020 	.word	0x25282020
    5a0c:	34253a73 	.word	0x34253a73
    5a10:	203a2964 	.word	0x203a2964
    5a14:	62616e55 	.word	0x62616e55
    5a18:	7420656c 	.word	0x7420656c
    5a1c:	6c61206f 	.word	0x6c61206f
    5a20:	61636f6c 	.word	0x61636f6c
    5a24:	67206574 	.word	0x67206574
    5a28:	61626f6c 	.word	0x61626f6c
    5a2c:	656e206c 	.word	0x656e206c
    5a30:	6e6f7275 	.word	0x6e6f7275
    5a34:	72617020 	.word	0x72617020
    5a38:	74656d61 	.word	0x74656d61
    5a3c:	2d737265 	.word	0x2d737265
    5a40:	74754f20 	.word	0x74754f20
    5a44:	20666f20 	.word	0x20666f20
    5a48:	4d435444 	.word	0x4d435444
    5a4c:	0000000a 	.word	0x0000000a
    5a50:	5252455b 	.word	0x5252455b
    5a54:	205d524f 	.word	0x205d524f
    5a58:	25282020 	.word	0x25282020
    5a5c:	34253a73 	.word	0x34253a73
    5a60:	203a2964 	.word	0x203a2964
    5a64:	62616e55 	.word	0x62616e55
    5a68:	7420656c 	.word	0x7420656c
    5a6c:	6c61206f 	.word	0x6c61206f
    5a70:	61636f6c 	.word	0x61636f6c
    5a74:	6e206574 	.word	0x6e206574
    5a78:	6f727565 	.word	0x6f727565
    5a7c:	7261206e 	.word	0x7261206e
    5a80:	20796172 	.word	0x20796172
    5a84:	754f202d 	.word	0x754f202d
    5a88:	666f2074 	.word	0x666f2074
    5a8c:	43544420 	.word	0x43544420
    5a90:	00000a4d 	.word	0x00000a4d
    5a94:	5252455b 	.word	0x5252455b
    5a98:	205d524f 	.word	0x205d524f
    5a9c:	25282020 	.word	0x25282020
    5aa0:	34253a73 	.word	0x34253a73
    5aa4:	203a2964 	.word	0x203a2964
    5aa8:	62616e55 	.word	0x62616e55
    5aac:	7420656c 	.word	0x7420656c
    5ab0:	6c61206f 	.word	0x6c61206f
    5ab4:	61636f6c 	.word	0x61636f6c
    5ab8:	74206574 	.word	0x74206574
    5abc:	73657268 	.word	0x73657268
    5ac0:	646c6f68 	.word	0x646c6f68
    5ac4:	70797420 	.word	0x70797420
    5ac8:	72612065 	.word	0x72612065
    5acc:	20796172 	.word	0x20796172
    5ad0:	754f202d 	.word	0x754f202d
    5ad4:	666f2074 	.word	0x666f2074
    5ad8:	43544420 	.word	0x43544420
    5adc:	00000a4d 	.word	0x00000a4d
    5ae0:	464e495b 	.word	0x464e495b
    5ae4:	20205d4f 	.word	0x20205d4f
    5ae8:	25282020 	.word	0x25282020
    5aec:	34253a73 	.word	0x34253a73
    5af0:	203a2964 	.word	0x203a2964
    5af4:	74697277 	.word	0x74697277
    5af8:	20676e69 	.word	0x20676e69
    5afc:	7275656e 	.word	0x7275656e
    5b00:	67206e6f 	.word	0x67206e6f
    5b04:	61626f6c 	.word	0x61626f6c
    5b08:	6170206c 	.word	0x6170206c
    5b0c:	656d6172 	.word	0x656d6172
    5b10:	73726574 	.word	0x73726574
    5b14:	0000000a 	.word	0x0000000a
    5b18:	464e495b 	.word	0x464e495b
    5b1c:	20205d4f 	.word	0x20205d4f
    5b20:	25282020 	.word	0x25282020
    5b24:	34253a73 	.word	0x34253a73
    5b28:	203a2964 	.word	0x203a2964
    5b2c:	74697277 	.word	0x74697277
    5b30:	20676e69 	.word	0x20676e69
    5b34:	7275656e 	.word	0x7275656e
    5b38:	6c206e6f 	.word	0x6c206e6f
    5b3c:	6c61636f 	.word	0x6c61636f
    5b40:	72617020 	.word	0x72617020
    5b44:	74656d61 	.word	0x74656d61
    5b48:	0a737265 	.word	0x0a737265
    5b4c:	00000000 	.word	0x00000000
    5b50:	464e495b 	.word	0x464e495b
    5b54:	20205d4f 	.word	0x20205d4f
    5b58:	25282020 	.word	0x25282020
    5b5c:	34253a73 	.word	0x34253a73
    5b60:	203a2964 	.word	0x203a2964
    5b64:	74697277 	.word	0x74697277
    5b68:	20676e69 	.word	0x20676e69
    5b6c:	75706e69 	.word	0x75706e69
    5b70:	79742074 	.word	0x79742074
    5b74:	70206570 	.word	0x70206570
    5b78:	6d617261 	.word	0x6d617261
    5b7c:	72657465 	.word	0x72657465
    5b80:	00000a73 	.word	0x00000a73
    5b84:	464e495b 	.word	0x464e495b
    5b88:	20205d4f 	.word	0x20205d4f
    5b8c:	25282020 	.word	0x25282020
    5b90:	34253a73 	.word	0x34253a73
    5b94:	203a2964 	.word	0x203a2964
    5b98:	74697277 	.word	0x74697277
    5b9c:	20676e69 	.word	0x20676e69
    5ba0:	69646461 	.word	0x69646461
    5ba4:	6e6f6974 	.word	0x6e6f6974
    5ba8:	69206c61 	.word	0x69206c61
    5bac:	7475706e 	.word	0x7475706e
    5bb0:	70797420 	.word	0x70797420
    5bb4:	61702065 	.word	0x61702065
    5bb8:	656d6172 	.word	0x656d6172
    5bbc:	73726574 	.word	0x73726574
    5bc0:	0000000a 	.word	0x0000000a
    5bc4:	464e495b 	.word	0x464e495b
    5bc8:	20205d4f 	.word	0x20205d4f
    5bcc:	25282020 	.word	0x25282020
    5bd0:	34253a73 	.word	0x34253a73
    5bd4:	203a2964 	.word	0x203a2964
    5bd8:	74697277 	.word	0x74697277
    5bdc:	20676e69 	.word	0x20676e69
    5be0:	65726874 	.word	0x65726874
    5be4:	6c6f6873 	.word	0x6c6f6873
    5be8:	79742064 	.word	0x79742064
    5bec:	70206570 	.word	0x70206570
    5bf0:	6d617261 	.word	0x6d617261
    5bf4:	72657465 	.word	0x72657465
    5bf8:	00000a73 	.word	0x00000a73
    5bfc:	6b697073 	.word	0x6b697073
    5c00:	72705f65 	.word	0x72705f65
    5c04:	7365636f 	.word	0x7365636f
    5c08:	676e6973 	.word	0x676e6973
    5c0c:	0000632e 	.word	0x0000632e
    5c10:	5252455b 	.word	0x5252455b
    5c14:	205d524f 	.word	0x205d524f
    5c18:	25282020 	.word	0x25282020
    5c1c:	34253a73 	.word	0x34253a73
    5c20:	203a2964 	.word	0x203a2964
    5c24:	6f727245 	.word	0x6f727245
    5c28:	72702072 	.word	0x72702072
    5c2c:	7365636f 	.word	0x7365636f
    5c30:	676e6973 	.word	0x676e6973
    5c34:	69707320 	.word	0x69707320
    5c38:	3020656b 	.word	0x3020656b
    5c3c:	382e2578 	.word	0x382e2578
    5c40:	6f662078 	.word	0x6f662078
    5c44:	64612072 	.word	0x64612072
    5c48:	73657264 	.word	0x73657264
    5c4c:	78302073 	.word	0x78302073
    5c50:	78382e25 	.word	0x78382e25
    5c54:	636f6c28 	.word	0x636f6c28
    5c58:	303d6c61 	.word	0x303d6c61
    5c5c:	382e2578 	.word	0x382e2578
    5c60:	000a2978 	.word	0x000a2978
    5c64:	5252455b 	.word	0x5252455b
    5c68:	205d524f 	.word	0x205d524f
    5c6c:	25282020 	.word	0x25282020
    5c70:	34253a73 	.word	0x34253a73
    5c74:	203a2964 	.word	0x203a2964
    5c78:	203a7525 	.word	0x203a7525
    5c7c:	2e257830 	.word	0x2e257830
    5c80:	000a7838 	.word	0x000a7838
    5c84:	5252455b 	.word	0x5252455b
    5c88:	205d524f 	.word	0x205d524f
    5c8c:	25282020 	.word	0x25282020
    5c90:	34253a73 	.word	0x34253a73
    5c94:	203a2964 	.word	0x203a2964
    5c98:	6c756f43 	.word	0x6c756f43
    5c9c:	6f6e2064 	.word	0x6f6e2064
    5ca0:	6e692074 	.word	0x6e692074
    5ca4:	61697469 	.word	0x61697469
    5ca8:	6573696c 	.word	0x6573696c
    5cac:	414d4420 	.word	0x414d4420
    5cb0:	66756220 	.word	0x66756220
    5cb4:	73726566 	.word	0x73726566
    5cb8:	0000000a 	.word	0x0000000a
    5cbc:	464e495b 	.word	0x464e495b
    5cc0:	20205d4f 	.word	0x20205d4f
    5cc4:	25282020 	.word	0x25282020
    5cc8:	34253a73 	.word	0x34253a73
    5ccc:	203a2964 	.word	0x203a2964
    5cd0:	20414d44 	.word	0x20414d44
    5cd4:	66667562 	.word	0x66667562
    5cd8:	25207265 	.word	0x25207265
    5cdc:	6c612075 	.word	0x6c612075
    5ce0:	61636f6c 	.word	0x61636f6c
    5ce4:	20646574 	.word	0x20646574
    5ce8:	30207461 	.word	0x30207461
    5cec:	38302578 	.word	0x38302578
    5cf0:	00000a78 	.word	0x00000a78
    5cf4:	75706f70 	.word	0x75706f70
    5cf8:	6974616c 	.word	0x6974616c
    5cfc:	745f6e6f 	.word	0x745f6e6f
    5d00:	656c6261 	.word	0x656c6261
    5d04:	6e69625f 	.word	0x6e69625f
    5d08:	5f797261 	.word	0x5f797261
    5d0c:	72616573 	.word	0x72616573
    5d10:	695f6863 	.word	0x695f6863
    5d14:	2e6c706d 	.word	0x2e6c706d
    5d18:	00000063 	.word	0x00000063
    5d1c:	464e495b 	.word	0x464e495b
    5d20:	20205d4f 	.word	0x20205d4f
    5d24:	25282020 	.word	0x25282020
    5d28:	34253a73 	.word	0x34253a73
    5d2c:	203a2964 	.word	0x203a2964
    5d30:	75706f70 	.word	0x75706f70
    5d34:	6974616c 	.word	0x6974616c
    5d38:	745f6e6f 	.word	0x745f6e6f
    5d3c:	656c6261 	.word	0x656c6261
    5d40:	696e695f 	.word	0x696e695f
    5d44:	6c616974 	.word	0x6c616974
    5d48:	3a657369 	.word	0x3a657369
    5d4c:	61747320 	.word	0x61747320
    5d50:	6e697472 	.word	0x6e697472
    5d54:	00000a67 	.word	0x00000a67
    5d58:	464e495b 	.word	0x464e495b
    5d5c:	20205d4f 	.word	0x20205d4f
    5d60:	25282020 	.word	0x25282020
    5d64:	34253a73 	.word	0x34253a73
    5d68:	203a2964 	.word	0x203a2964
    5d6c:	7473616d 	.word	0x7473616d
    5d70:	70207265 	.word	0x70207265
    5d74:	7420706f 	.word	0x7420706f
    5d78:	656c6261 	.word	0x656c6261
    5d7c:	6e656c20 	.word	0x6e656c20
    5d80:	20687467 	.word	0x20687467
    5d84:	25207369 	.word	0x25207369
    5d88:	000a0a64 	.word	0x000a0a64
    5d8c:	464e495b 	.word	0x464e495b
    5d90:	20205d4f 	.word	0x20205d4f
    5d94:	25282020 	.word	0x25282020
    5d98:	34253a73 	.word	0x34253a73
    5d9c:	203a2964 	.word	0x203a2964
    5da0:	7473616d 	.word	0x7473616d
    5da4:	70207265 	.word	0x70207265
    5da8:	7420706f 	.word	0x7420706f
    5dac:	656c6261 	.word	0x656c6261
    5db0:	746e6520 	.word	0x746e6520
    5db4:	73207972 	.word	0x73207972
    5db8:	20657a69 	.word	0x20657a69
    5dbc:	25207369 	.word	0x25207369
    5dc0:	000a0a64 	.word	0x000a0a64
    5dc4:	464e495b 	.word	0x464e495b
    5dc8:	20205d4f 	.word	0x20205d4f
    5dcc:	25282020 	.word	0x25282020
    5dd0:	34253a73 	.word	0x34253a73
    5dd4:	203a2964 	.word	0x203a2964
    5dd8:	20706f70 	.word	0x20706f70
    5ddc:	6c626174 	.word	0x6c626174
    5de0:	69732065 	.word	0x69732065
    5de4:	6920657a 	.word	0x6920657a
    5de8:	64252073 	.word	0x64252073
    5dec:	00000a0a 	.word	0x00000a0a
    5df0:	5252455b 	.word	0x5252455b
    5df4:	205d524f 	.word	0x205d524f
    5df8:	25282020 	.word	0x25282020
    5dfc:	34253a73 	.word	0x34253a73
    5e00:	203a2964 	.word	0x203a2964
    5e04:	6c756f43 	.word	0x6c756f43
    5e08:	6f6e2064 	.word	0x6f6e2064
    5e0c:	6c612074 	.word	0x6c612074
    5e10:	61636f6c 	.word	0x61636f6c
    5e14:	6d206574 	.word	0x6d206574
    5e18:	65747361 	.word	0x65747361
    5e1c:	6f702072 	.word	0x6f702072
    5e20:	616c7570 	.word	0x616c7570
    5e24:	6e6f6974 	.word	0x6e6f6974
    5e28:	62617420 	.word	0x62617420
    5e2c:	000a656c 	.word	0x000a656c
    5e30:	5252455b 	.word	0x5252455b
    5e34:	205d524f 	.word	0x205d524f
    5e38:	25282020 	.word	0x25282020
    5e3c:	34253a73 	.word	0x34253a73
    5e40:	203a2964 	.word	0x203a2964
    5e44:	6c756f43 	.word	0x6c756f43
    5e48:	6f6e2064 	.word	0x6f6e2064
    5e4c:	6c612074 	.word	0x6c612074
    5e50:	61636f6c 	.word	0x61636f6c
    5e54:	6d206574 	.word	0x6d206574
    5e58:	65747361 	.word	0x65747361
    5e5c:	6f702072 	.word	0x6f702072
    5e60:	616c7570 	.word	0x616c7570
    5e64:	6e6f6974 	.word	0x6e6f6974
    5e68:	64646120 	.word	0x64646120
    5e6c:	73736572 	.word	0x73736572
    5e70:	73696c20 	.word	0x73696c20
    5e74:	00000a74 	.word	0x00000a74
    5e78:	464e495b 	.word	0x464e495b
    5e7c:	20205d4f 	.word	0x20205d4f
    5e80:	25282020 	.word	0x25282020
    5e84:	34253a73 	.word	0x34253a73
    5e88:	203a2964 	.word	0x203a2964
    5e8c:	20706f70 	.word	0x20706f70
    5e90:	6c626174 	.word	0x6c626174
    5e94:	69732065 	.word	0x69732065
    5e98:	203a657a 	.word	0x203a657a
    5e9c:	28207525 	.word	0x28207525
    5ea0:	62207525 	.word	0x62207525
    5ea4:	73657479 	.word	0x73657479
    5ea8:	00000a29 	.word	0x00000a29
    5eac:	464e495b 	.word	0x464e495b
    5eb0:	20205d4f 	.word	0x20205d4f
    5eb4:	25282020 	.word	0x25282020
    5eb8:	34253a73 	.word	0x34253a73
    5ebc:	203a2964 	.word	0x203a2964
    5ec0:	72646461 	.word	0x72646461
    5ec4:	20737365 	.word	0x20737365
    5ec8:	7473696c 	.word	0x7473696c
    5ecc:	7a697320 	.word	0x7a697320
    5ed0:	25203a65 	.word	0x25203a65
    5ed4:	25282075 	.word	0x25282075
    5ed8:	79622075 	.word	0x79622075
    5edc:	29736574 	.word	0x29736574
    5ee0:	0000000a 	.word	0x0000000a
    5ee4:	464e495b 	.word	0x464e495b
    5ee8:	20205d4f 	.word	0x20205d4f
    5eec:	25282020 	.word	0x25282020
    5ef0:	34253a73 	.word	0x34253a73
    5ef4:	203a2964 	.word	0x203a2964
    5ef8:	20656874 	.word	0x20656874
    5efc:	726f7473 	.word	0x726f7473
    5f00:	73206465 	.word	0x73206465
    5f04:	70616e79 	.word	0x70616e79
    5f08:	20636974 	.word	0x20636974
    5f0c:	7274616d 	.word	0x7274616d
    5f10:	62207869 	.word	0x62207869
    5f14:	20657361 	.word	0x20657361
    5f18:	72646461 	.word	0x72646461
    5f1c:	20737365 	.word	0x20737365
    5f20:	6c207369 	.word	0x6c207369
    5f24:	7461636f 	.word	0x7461636f
    5f28:	61206465 	.word	0x61206465
    5f2c:	30203a74 	.word	0x30203a74
    5f30:	38302578 	.word	0x38302578
    5f34:	00000a78 	.word	0x00000a78
    5f38:	464e495b 	.word	0x464e495b
    5f3c:	20205d4f 	.word	0x20205d4f
    5f40:	25282020 	.word	0x25282020
    5f44:	34253a73 	.word	0x34253a73
    5f48:	203a2964 	.word	0x203a2964
    5f4c:	20656874 	.word	0x20656874
    5f50:	65726964 	.word	0x65726964
    5f54:	73207463 	.word	0x73207463
    5f58:	70616e79 	.word	0x70616e79
    5f5c:	20636974 	.word	0x20636974
    5f60:	7274616d 	.word	0x7274616d
    5f64:	62207869 	.word	0x62207869
    5f68:	20657361 	.word	0x20657361
    5f6c:	72646461 	.word	0x72646461
    5f70:	20737365 	.word	0x20737365
    5f74:	6c207369 	.word	0x6c207369
    5f78:	7461636f 	.word	0x7461636f
    5f7c:	61206465 	.word	0x61206465
    5f80:	30203a74 	.word	0x30203a74
    5f84:	38302578 	.word	0x38302578
    5f88:	00000a78 	.word	0x00000a78
    5f8c:	464e495b 	.word	0x464e495b
    5f90:	20205d4f 	.word	0x20205d4f
    5f94:	25282020 	.word	0x25282020
    5f98:	34253a73 	.word	0x34253a73
    5f9c:	203a2964 	.word	0x203a2964
    5fa0:	7473616d 	.word	0x7473616d
    5fa4:	705f7265 	.word	0x705f7265
    5fa8:	6c75706f 	.word	0x6c75706f
    5fac:	6f697461 	.word	0x6f697461
    5fb0:	000a0a6e 	.word	0x000a0a6e
    5fb4:	464e495b 	.word	0x464e495b
    5fb8:	20205d4f 	.word	0x20205d4f
    5fbc:	25282020 	.word	0x25282020
    5fc0:	34253a73 	.word	0x34253a73
    5fc4:	203a2964 	.word	0x203a2964
    5fc8:	2d2d2d2d 	.word	0x2d2d2d2d
    5fcc:	2d2d2d2d 	.word	0x2d2d2d2d
    5fd0:	2d2d2d2d 	.word	0x2d2d2d2d
    5fd4:	2d2d2d2d 	.word	0x2d2d2d2d
    5fd8:	2d2d2d2d 	.word	0x2d2d2d2d
    5fdc:	2d2d2d2d 	.word	0x2d2d2d2d
    5fe0:	2d2d2d2d 	.word	0x2d2d2d2d
    5fe4:	2d2d2d2d 	.word	0x2d2d2d2d
    5fe8:	2d2d2d2d 	.word	0x2d2d2d2d
    5fec:	2d2d2d2d 	.word	0x2d2d2d2d
    5ff0:	0a0a2d2d 	.word	0x0a0a2d2d
    5ff4:	00000000 	.word	0x00000000
    5ff8:	464e495b 	.word	0x464e495b
    5ffc:	20205d4f 	.word	0x20205d4f
    6000:	25282020 	.word	0x25282020
    6004:	34253a73 	.word	0x34253a73
    6008:	203a2964 	.word	0x203a2964
    600c:	65646e69 	.word	0x65646e69
    6010:	25282078 	.word	0x25282078
    6014:	25202c64 	.word	0x25202c64
    6018:	202c2964 	.word	0x202c2964
    601c:	3a79656b 	.word	0x3a79656b
    6020:	25783020 	.word	0x25783020
    6024:	2c78382e 	.word	0x2c78382e
    6028:	73616d20 	.word	0x73616d20
    602c:	30203a6b 	.word	0x30203a6b
    6030:	382e2578 	.word	0x382e2578
    6034:	61202c78 	.word	0x61202c78
    6038:	65726464 	.word	0x65726464
    603c:	203a7373 	.word	0x203a7373
    6040:	2e257830 	.word	0x2e257830
    6044:	202c7838 	.word	0x202c7838
    6048:	5f776f72 	.word	0x5f776f72
    604c:	676e656c 	.word	0x676e656c
    6050:	203a6874 	.word	0x203a6874
    6054:	0a0a7525 	.word	0x0a0a7525
    6058:	00000000 	.word	0x00000000
    605c:	6e5f796d 	.word	0x6e5f796d
    6060:	6f727565 	.word	0x6f727565
    6064:	6f6d5f6e 	.word	0x6f6d5f6e
    6068:	5f6c6564 	.word	0x5f6c6564
    606c:	6c706d69 	.word	0x6c706d69
    6070:	0000632e 	.word	0x0000632e
    6074:	464e495b 	.word	0x464e495b
    6078:	20205d4f 	.word	0x20205d4f
    607c:	25282020 	.word	0x25282020
    6080:	34253a73 	.word	0x34253a73
    6084:	203a2964 	.word	0x203a2964
    6088:	54534554 	.word	0x54534554
    608c:	20474e49 	.word	0x20474e49
    6090:	54534554 	.word	0x54534554
    6094:	20474e49 	.word	0x20474e49
    6098:	203d2056 	.word	0x203d2056
    609c:	2e313125 	.word	0x2e313125
    60a0:	6d206b34 	.word	0x6d206b34
    60a4:	00000a76 	.word	0x00000a76
    60a8:	616e7973 	.word	0x616e7973
    60ac:	5f657370 	.word	0x5f657370
    60b0:	616e7964 	.word	0x616e7964
    60b4:	7363696d 	.word	0x7363696d
    60b8:	6174735f 	.word	0x6174735f
    60bc:	5f636974 	.word	0x5f636974
    60c0:	6c706d69 	.word	0x6c706d69
    60c4:	0000632e 	.word	0x0000632e
    60c8:	5252455b 	.word	0x5252455b
    60cc:	205d524f 	.word	0x205d524f
    60d0:	25282020 	.word	0x25282020
    60d4:	34253a73 	.word	0x34253a73
    60d8:	203a2964 	.word	0x203a2964
    60dc:	72656854 	.word	0x72656854
    60e0:	68732065 	.word	0x68732065
    60e4:	646c756f 	.word	0x646c756f
    60e8:	20656220 	.word	0x20656220
    60ec:	70206f6e 	.word	0x70206f6e
    60f0:	7473616c 	.word	0x7473616c
    60f4:	73206369 	.word	0x73206369
    60f8:	70616e79 	.word	0x70616e79
    60fc:	21736573 	.word	0x21736573
    6100:	0000000a 	.word	0x0000000a

00006104 <build_name>:
    6104:	6d5f796d 6c65646f 7275635f 00655f72     my_model_curr_e.

00006114 <build_date>:
    6114:	59c50921 2f637273 61746164 6570735f     !..Ysrc/data_spe
    6124:	69666963 69746163 632e6e6f 4e495b00     cification.c.[IN
    6134:	205d4f46 28202020 253a7325 3a296434     FO]    (%s:%4d):
    6144:	52445320 64204d41 20617461 69676562      SDRAM data begi
    6154:	6120736e 64612074 73657264 25203a73     ns at address: %
    6164:	0a783830 52455b00 5d524f52 28202020     08x..[ERROR]   (
    6174:	253a7325 3a296434 67614d20 6e206369     %s:%4d): Magic n
    6184:	65626d75 73692072 636e6920 6572726f     umber is incorre
    6194:	203a7463 78383025 455b000a 524f5252     ct: %08x..[ERROR
    61a4:	2020205d 3a732528 29643425 6556203a     ]   (%s:%4d): Ve
    61b4:	6f697372 756e206e 7265626d 20736920     rsion number is 
    61c4:	6f636e69 63657272 25203a74 0a783830     incorrect: %08x.
    61d4:	4e495b00 205d4f46 28202020 253a7325     .[INFO]    (%s:%
    61e4:	3a296434 67616d20 3d206369 38302520     4d): magic = %08
    61f4:	76202c78 69737265 3d206e6f 2e642520     x, version = %d.
    6204:	000a6425 2f637273 756d6973 6974616c     %d..src/simulati
    6214:	632e6e6f 4e495b00 205d4f46 28202020     on.c.[INFO]    (
    6224:	253a7325 3a296434 61745320 6e697472     %s:%4d): Startin
    6234:	61622067 20636973 766f7270 6e616e65     g basic provenan
    6244:	67206563 65687461 676e6972 495b000a     ce gathering..[I
    6254:	5d4f464e 20202020 3a732528 29643425     NFO]    (%s:%4d)
    6264:	7572203a 6e696e6e 746f2067 20726568     : running other 
    6274:	766f7270 6e616e65 67206563 65687461     provenance gathe
    6284:	676e6972 495b000a 5d4f464e 20202020     ring..[INFO]    
    6294:	3a732528 29643425 6552203a 76696563     (%s:%4d): Receiv
    62a4:	65206465 20746978 6e676973 202e6c61     ed exit signal. 
    62b4:	676f7250 206d6172 706d6f63 6574656c     Program complete
    62c4:	5b000a2e 4f464e49 2020205d 73252820     ...[INFO]    (%s
    62d4:	6434253a 43203a29 696c6c61 7020676e     :%4d): Calling p
    62e4:	652d6572 20746978 636e7566 6e6f6974     re-exit function
    62f4:	495b000a 5d4f464e 20202020 3a732528     ..[INFO]    (%s:
    6304:	29643425 7845203a 6e697469 5b000a67     %4d): Exiting..[
    6314:	4f464e49 2020205d 73252820 6434253a     INFO]    (%s:%4d
    6324:	53203a29 69747465 7420676e 72206568     ): Setting the r
    6334:	69746e75 6f20656d 68742066 6d207369     untime of this m
    6344:	6c65646f 206f7420 000a6425 464e495b     odel to %d..[INF
    6354:	20205d4f 25282020 34253a73 203a2964     O]    (%s:%4d): 
    6364:	74746553 20676e69 20656874 67616c66     Setting the flag
    6374:	20666f20 69666e69 6574696e 6e757220      of infinite run
    6384:	726f6620 69687420 6f6d2073 206c6564      for this model 
    6394:	25206f74 5b000a64 4f464e49 2020205d     to %d..[INFO]   
    63a4:	73252820 6434253a 43203a29 696c6c61      (%s:%4d): Calli
    63b4:	7020676e 722d6572 6d757365 75662065     ng pre-resume fu
    63c4:	6974636e 000a6e6f 464e495b 20205d4f     nction..[INFO]  
    63d4:	25282020 34253a73 203a2964 75736552       (%s:%4d): Resu
    63e4:	676e696d 495b000a 5d4f464e 20202020     ming..[INFO]    
    63f4:	3a732528 29643425 6f46203a 64656372     (%s:%4d): Forced
    6404:	6f727020 616e6576 2065636e 68746167      provenance gath
    6414:	6e697265 5b000a67 4f525245 20205d52     ering..[ERROR]  
    6424:	73252820 6434253a 72203a29 69656365      (%s:%4d): recei
    6434:	20646576 6b636170 77207465 20687469     ved packet with 
    6444:	6e6b6e75 206e776f 6d6d6f63 20646e61     unknown command 
    6454:	65646f63 0a642520 52455b00 5d524f52     code %d..[ERROR]
    6464:	28202020 253a7325 3a296434 6e614320        (%s:%4d): Can
    6474:	20746f6e 646e6168 7420656c 76206761     not handle tag v
    6484:	65756c61 6f626120 25206576 70202c64     alue above %d, p
    6494:	7361656c 65722065 65637564 65687420     lease reduce the
    64a4:	67617420 6c617620 61206575 726f6363      tag value accor
    64b4:	676e6964 0a2e796c 52455b00 5d524f52     dingly...[ERROR]
    64c4:	28202020 253a7325 3a296434 6e614320        (%s:%4d): Can
    64d4:	20746f6e 6f6c6c61 65746163 616d6420     not allocate dma
    64e4:	61727420 6566736e 61632072 61626c6c      transfer callba
    64f4:	6f206b63 6174206e 64252067 20736120     ck on tag %d as 
    6504:	20737469 65726c61 20796461 6e656562     its already been
    6514:	6c6c6120 7461636f 0a2e6465 52455b00      allocated...[ER
    6524:	5d524f52 28202020 253a7325 3a296434     ROR]   (%s:%4d):
    6534:	656e5520 63657078 20646574 6967616d      Unexpected magi
    6544:	756e2063 7265626d 25783020 20783830     c number 0x%08x 
    6554:	74736e69 20646165 3020666f 38302578     instead of 0x%08
    6564:	74612078 25783020 0a783830 52455b00     x at 0x%08x..[ER
    6574:	5d524f52 28202020 253a7325 3a296434     ROR]   (%s:%4d):
    6584:	65685420 50445320 6c616320 6361626c      The SDP callbac
    6594:	7270206b 69726f69 73207974 6c756f68     k priority shoul
    65a4:	65622064 74657320 206f7420 756e2061     d be set to a nu
    65b4:	7265626d 65726720 72657461 61687420     mber greater tha
    65c4:	726f206e 75716520 74206c61 312d206f     n or equal to -1
    65d4:	4920202e 73692074 72756320 746e6572     .  It is current
    65e4:	7320796c 74207465 6425206f 455b000a     ly set to %d..[E
    65f4:	524f5252 2020205d 3a732528 29643425     RROR]   (%s:%4d)
    6604:	6143203a 746f6e6e 6c6c6120 7461636f     : Cannot allocat
    6614:	64732065 61632070 61626c6c 6f206b63     e sdp callback o
    6624:	6f70206e 25207472 73612064 73746920     n port %d as its
    6634:	726c6120 79646165 65656220 6c61206e      already been al
    6644:	61636f6c 2e646574 455b000a 524f5252     located...[ERROR
    6654:	2020205d 3a732528 29643425 6e55203a     ]   (%s:%4d): Un
    6664:	776f6e6b 6863206e 656e6e61 7473206c     known channel st
    6674:	20657461 6863202d 656e6e61 25203a6c     ate - channel: %
    6684:	73202c64 74726174 696f7020 7265746e     d, start pointer
    6694:	6425203a 6e65202c 6f702064 65746e69     : %d, end pointe
    66a4:	25203a72 72202c64 5f646165 6e696f70     r: %d, read_poin
    66b4:	3a726574 2c642520 69727720 705f6574     ter: %d, write_p
    66c4:	746e696f 203a7265 202c6425 7473616c     ointer: %d, last
    66d4:	65706f20 69746172 3d3d6e6f 44414552      operation==READ
    66e4:	6425203a 495b000a 5d4f464e 20202020     : %d..[INFO]    
    66f4:	3a732528 29643425 4609203a 6c616e69     (%s:%4d): .Final
    6704:	6e697369 68632067 656e6e61 7525206c     ising channel %u
    6714:	64202d20 70706f72 69206465 726f666e      - dropped infor
    6724:	6974616d 77206e6f 656c6968 66667562     mation whilebuff
    6734:	6e697265 202d2067 74617473 6e692065     ering - state in
    6744:	73206f66 65726f74 6e692064 52445320     fo stored in SDR
    6754:	000a4d41 464e495b 20205d4f 25282020     AM..[INFO]    (%
    6764:	34253a73 203a2964 6e694609 73696c61     s:%4d): .Finalis
    6774:	20676e69 6e616863 206c656e 2d207525     ing channel %u -
    6784:	61747320 69206574 206f666e 726f7473      state info stor
    6794:	69206465 4453206e 0a4d4152 4e495b00     ed in SDRAM..[IN
    67a4:	205d4f46 28202020 253a7325 3a296434     FO]    (%s:%4d):
    67b4:	6f6c6320 20646573 6e616863 206c656e      closed channel 
    67c4:	0a2e7525 4e495b00 205d4f46 28202020     %u...[INFO]    (
    67d4:	253a7325 3a296434 63655220 6964726f     %s:%4d): Recordi
    67e4:	2520676e 65722064 6e6f6967 75202c73     ng %d regions, u
    67f4:	676e6973 74756f20 20747570 20676174     sing output tag 
    6804:	202c6425 657a6973 66656220 2065726f     %d, size before 
    6814:	67697274 20726567 202c6425 656d6974     trigger %d, time
    6824:	74656220 6e656577 69727420 72656767      between trigger
    6834:	64252073 455b000a 524f5252 2020205d     s %d..[ERROR]   
    6844:	3a732528 29643425 6f4e203a 6e652074     (%s:%4d): Not en
    6854:	6867756f 61707320 74206563 6c61206f     ough space to al
    6864:	61636f6c 72206574 726f6365 676e6964     locate recording
    6874:	64646120 73736572 000a7365 5252455b      addresses..[ERR
    6884:	205d524f 25282020 34253a73 203a2964     OR]   (%s:%4d): 
    6894:	20746f4e 756f6e65 73206867 65636170     Not enough space
    68a4:	206f7420 6f6c6c61 65746163 67657220      to allocate reg
    68b4:	206e6f69 657a6973 5b000a73 4f525245     ion sizes..[ERRO
    68c4:	20205d52 73252820 6434253a 43203a29     R]   (%s:%4d): C
    68d4:	646c756f 746f6e20 6c6c6120 7461636f     ould not allocat
    68e4:	65722065 64726f63 20676e69 69676572     e recording regi
    68f4:	25206e6f 666f2075 20752520 65747962     on %u of %u byte
    6904:	5b000a73 4f525245 20205d52 73252820     s..[ERROR]   (%s
    6914:	6434253a 4e203a29 6520746f 67756f6e     :%4d): Not enoug
    6924:	70732068 20656361 63206f74 74616572     h space to creat
    6934:	65722065 64726f63 20676e69 6e616863     e recording chan
    6944:	736c656e 7273000a 65722f63 64726f63     nels..src/record
    6954:	2e676e69 495b0063 5d4f464e 20202020     ing.c.[INFO]    
    6964:	3a732528 29643425 4157203a 4e494e52     (%s:%4d): WARNIN
    6974:	72203a47 726f6365 676e6964 61686320     G: recording cha
    6984:	6c656e6e 20752520 2074756f 7320666f     nnel %u out of s
    6994:	65636170 495b000a 5d4f464e 20202020     pace..[INFO]    
    69a4:	3a732528 29643425 6552203a 64726f63     (%s:%4d): Record
    69b4:	20676e69 6e616863 206c656e 63207525     ing channel %u c
    69c4:	69666e6f 65727567 6f742064 65737520     onfigured to use
    69d4:	20752520 65747962 6d656d20 2079726f      %u byte memory 
    69e4:	636f6c62 7473206b 69747261 6120676e     block starting a
    69f4:	78302074 78383025 495b000a 5d4f464e     t 0x%08x..[INFO]
    6a04:	20202020 3a732528 29643425 6552203a         (%s:%4d): Re
    6a14:	64726f63 20676e69 6e616863 206c656e     cording channel 
    6a24:	6c207525 20746665 6e696e75 61697469     %u left uninitia
    6a34:	6573696c 5b000a64 4f464e49 2020205d     lised..[INFO]   
    6a44:	73252820 6434253a 50203a29 69666f72      (%s:%4d): Profi
    6a54:	2072656c 746f7277 75252065 74796220     ler wrote %u byt
    6a64:	74207365 7830206f 78383025 7273000a     es to 0x%08x..sr
    6a74:	72702f63 6c69666f 632e7265 4e495b00     c/profiler.c.[IN
    6a84:	205d4f46 28202020 253a7325 3a296434     FO]    (%s:%4d):
    6a94:	61655220 676e6964 6f727020 656c6966      Reading profile
    6aa4:	74657320 66207075 206d6f72 30257830      setup from 0x%0
    6ab4:	000a7838 464e495b 20205d4f 25282020     8x..[INFO]    (%
    6ac4:	34253a73 203a2964 74696e49 696c6169     s:%4d): Initiali
    6ad4:	676e6973 6f727020 656c6966 69772072     sing profiler wi
    6ae4:	73206874 61726f74 66206567 2520726f     th storage for %
    6af4:	61732075 656c706d 74732073 69747261     u samples starti
    6b04:	6120676e 78302074 78383025 0000000a     ng at 0x%08x....
    6b14:	2f637273 63726963 72616c75 6675625f     src/circular_buf
    6b24:	2e726566 00000063 5241575b 474e494e     fer.c...[WARNING
    6b34:	2528205d 34253a73 203a2964 75716552     ] (%s:%4d): Requ
    6b44:	65747365 69732064 6f20657a 75252066     ested size of %u
    6b54:	73617720 756f7220 6465646e 20707520      was rounded up 
    6b64:	25206f74 00000a75 5252455b 205d524f     to %u...[ERROR] 
    6b74:	25282020 34253a73 203a2964 6e6e6143       (%s:%4d): Cann
    6b84:	6120746f 636f6c6c 20657461 63617073     ot allocate spac
    6b94:	6f662065 75622072 72656666 72747320     e for buffer str
    6ba4:	75746375 000a6572 5252455b 205d524f     ucture..[ERROR] 
    6bb4:	25282020 34253a73 203a2964 6e6e6143       (%s:%4d): Cann
    6bc4:	6120746f 636f6c6c 20657461 63617073     ot allocate spac
    6bd4:	6f662065 75622072 72656666 206e6920     e for buffer in 
    6be4:	63726963 72616c75 66756220 0a726566     circular buffer.
    6bf4:	00000000 4b524153 6970532f 6b614e4e     ....SARK/SpiNNak
    6c04:	33007265 302e312e 32313000                       er.3.1.0.

00006c0d <hex>:
    6c0d:	33323130 37363534 62613938 66656463     0123456789abcdef
    6c1d:	5b090900 5f697061 75626564 52205d67     ...[api_debug] R
    6c2d:	6d205254 20202063 61702020 74656b63     TR mc     packet
    6c3d:	25203a73 09000a64 70615b09 65645f69     s: %d....[api_de
    6c4d:	5d677562 52545220 64706420 20636d20     bug] RTR dpd mc 
    6c5d:	6b636170 3a737465 0a642520 5b090900     packets: %d....[
    6c6d:	5f697061 75626564 49205d67 74205253     api_debug] ISR t
    6c7d:	776f7268 6170206e 74656b63 25203a73     hrown packets: %
    6c8d:	09000a64 70615b09 65645f69 5d677562     d....[api_debug]
    6c9d:	52534920 72687420 206e776f 70205246      ISR thrown FR p
    6cad:	656b6361 203a7374 000a6425 615b0909     ackets: %d....[a
    6cbd:	645f6970 67756265 4d44205d 75622041     pi_debug] DMA bu
    6ccd:	73747372 2520203a 09000a64 70615b09     rsts:  %d....[ap
    6cdd:	61775f69 205d6e72 6e726177 3a676e69     i_warn] warning:
    6ced:	73617420 7571206b 20657565 6c6c7566      task queue full
    6cfd:	75252820 09000a29 70615b09 61775f69      (%u)....[api_wa
    6d0d:	205d6e72 6e726177 3a676e69 414d4420     rn] warning: DMA
    6d1d:	65757120 66206575 206c6c75 29752528      queue full (%u)
    6d2d:	0909000a 6970615b 7261775f 77205d6e     ....[api_warn] w
    6d3d:	696e7261 203a676e 6b636170 71207465     arning: packet q
    6d4d:	65756575 6c756620 2528206c 000a2975     ueue full (%u)..
